
rtarget:     file format elf64-x86-64


Disassembly of section .init:

0000000000000f00 <_init>:
 f00:	48 83 ec 08          	sub    $0x8,%rsp
 f04:	48 8b 05 4d 40 20 00 	mov    0x20404d(%rip),%rax        # 204f58 <_GLOBAL_OFFSET_TABLE_+0xa8>
 f0b:	48 85 c0             	test   %rax,%rax
 f0e:	74 02                	je     f12 <_init+0x12>
 f10:	ff d0                	callq  *%rax
 f12:	48 83 c4 08          	add    $0x8,%rsp
 f16:	c3                   	retq   

Disassembly of section .plt:

0000000000000f20 <.plt>:
 f20:	ff 35 92 3f 20 00    	pushq  0x203f92(%rip)        # 204eb8 <_GLOBAL_OFFSET_TABLE_+0x8>
 f26:	ff 25 94 3f 20 00    	jmpq   *0x203f94(%rip)        # 204ec0 <_GLOBAL_OFFSET_TABLE_+0x10>
 f2c:	0f 1f 40 00          	nopl   0x0(%rax)

Disassembly of section .plt.got:

0000000000000f30 <.plt.got>:
     f30:	ff 25 92 3f 20 00    	jmpq   *0x203f92(%rip)        # 204ec8 <_GLOBAL_OFFSET_TABLE_+0x18>
     f36:	66 90                	xchg   %ax,%ax
     f38:	ff 25 92 3f 20 00    	jmpq   *0x203f92(%rip)        # 204ed0 <_GLOBAL_OFFSET_TABLE_+0x20>
     f3e:	66 90                	xchg   %ax,%ax
     f40:	ff 25 92 3f 20 00    	jmpq   *0x203f92(%rip)        # 204ed8 <_GLOBAL_OFFSET_TABLE_+0x28>
     f46:	66 90                	xchg   %ax,%ax
     f48:	ff 25 92 3f 20 00    	jmpq   *0x203f92(%rip)        # 204ee0 <_GLOBAL_OFFSET_TABLE_+0x30>
     f4e:	66 90                	xchg   %ax,%ax
     f50:	ff 25 9a 3f 20 00    	jmpq   *0x203f9a(%rip)        # 204ef0 <_GLOBAL_OFFSET_TABLE_+0x40>
     f56:	66 90                	xchg   %ax,%ax
     f58:	ff 25 9a 3f 20 00    	jmpq   *0x203f9a(%rip)        # 204ef8 <_GLOBAL_OFFSET_TABLE_+0x48>
     f5e:	66 90                	xchg   %ax,%ax
     f60:	ff 25 9a 3f 20 00    	jmpq   *0x203f9a(%rip)        # 204f00 <_GLOBAL_OFFSET_TABLE_+0x50>
     f66:	66 90                	xchg   %ax,%ax
     f68:	ff 25 9a 3f 20 00    	jmpq   *0x203f9a(%rip)        # 204f08 <_GLOBAL_OFFSET_TABLE_+0x58>
     f6e:	66 90                	xchg   %ax,%ax
     f70:	ff 25 9a 3f 20 00    	jmpq   *0x203f9a(%rip)        # 204f10 <_GLOBAL_OFFSET_TABLE_+0x60>
     f76:	66 90                	xchg   %ax,%ax
     f78:	ff 25 9a 3f 20 00    	jmpq   *0x203f9a(%rip)        # 204f18 <_GLOBAL_OFFSET_TABLE_+0x68>
     f7e:	66 90                	xchg   %ax,%ax
     f80:	ff 25 9a 3f 20 00    	jmpq   *0x203f9a(%rip)        # 204f20 <_GLOBAL_OFFSET_TABLE_+0x70>
     f86:	66 90                	xchg   %ax,%ax
     f88:	ff 25 9a 3f 20 00    	jmpq   *0x203f9a(%rip)        # 204f28 <_GLOBAL_OFFSET_TABLE_+0x78>
     f8e:	66 90                	xchg   %ax,%ax
     f90:	ff 25 9a 3f 20 00    	jmpq   *0x203f9a(%rip)        # 204f30 <_GLOBAL_OFFSET_TABLE_+0x80>
     f96:	66 90                	xchg   %ax,%ax
     f98:	ff 25 a2 3f 20 00    	jmpq   *0x203fa2(%rip)        # 204f40 <_GLOBAL_OFFSET_TABLE_+0x90>
     f9e:	66 90                	xchg   %ax,%ax
     fa0:	ff 25 a2 3f 20 00    	jmpq   *0x203fa2(%rip)        # 204f48 <_GLOBAL_OFFSET_TABLE_+0x98>
     fa6:	66 90                	xchg   %ax,%ax
     fa8:	ff 25 a2 3f 20 00    	jmpq   *0x203fa2(%rip)        # 204f50 <_GLOBAL_OFFSET_TABLE_+0xa0>
     fae:	66 90                	xchg   %ax,%ax
     fb0:	ff 25 aa 3f 20 00    	jmpq   *0x203faa(%rip)        # 204f60 <_GLOBAL_OFFSET_TABLE_+0xb0>
     fb6:	66 90                	xchg   %ax,%ax
     fb8:	ff 25 aa 3f 20 00    	jmpq   *0x203faa(%rip)        # 204f68 <_GLOBAL_OFFSET_TABLE_+0xb8>
     fbe:	66 90                	xchg   %ax,%ax
     fc0:	ff 25 aa 3f 20 00    	jmpq   *0x203faa(%rip)        # 204f70 <_GLOBAL_OFFSET_TABLE_+0xc0>
     fc6:	66 90                	xchg   %ax,%ax
     fc8:	ff 25 aa 3f 20 00    	jmpq   *0x203faa(%rip)        # 204f78 <_GLOBAL_OFFSET_TABLE_+0xc8>
     fce:	66 90                	xchg   %ax,%ax
     fd0:	ff 25 aa 3f 20 00    	jmpq   *0x203faa(%rip)        # 204f80 <_GLOBAL_OFFSET_TABLE_+0xd0>
     fd6:	66 90                	xchg   %ax,%ax
     fd8:	ff 25 aa 3f 20 00    	jmpq   *0x203faa(%rip)        # 204f88 <_GLOBAL_OFFSET_TABLE_+0xd8>
     fde:	66 90                	xchg   %ax,%ax
     fe0:	ff 25 aa 3f 20 00    	jmpq   *0x203faa(%rip)        # 204f90 <_GLOBAL_OFFSET_TABLE_+0xe0>
     fe6:	66 90                	xchg   %ax,%ax
     fe8:	ff 25 aa 3f 20 00    	jmpq   *0x203faa(%rip)        # 204f98 <_GLOBAL_OFFSET_TABLE_+0xe8>
     fee:	66 90                	xchg   %ax,%ax
     ff0:	ff 25 aa 3f 20 00    	jmpq   *0x203faa(%rip)        # 204fa0 <_GLOBAL_OFFSET_TABLE_+0xf0>
     ff6:	66 90                	xchg   %ax,%ax
     ff8:	ff 25 b2 3f 20 00    	jmpq   *0x203fb2(%rip)        # 204fb0 <_GLOBAL_OFFSET_TABLE_+0x100>
     ffe:	66 90                	xchg   %ax,%ax
    1000:	ff 25 b2 3f 20 00    	jmpq   *0x203fb2(%rip)        # 204fb8 <_GLOBAL_OFFSET_TABLE_+0x108>
    1006:	66 90                	xchg   %ax,%ax
    1008:	ff 25 b2 3f 20 00    	jmpq   *0x203fb2(%rip)        # 204fc0 <_GLOBAL_OFFSET_TABLE_+0x110>
    100e:	66 90                	xchg   %ax,%ax
    1010:	ff 25 b2 3f 20 00    	jmpq   *0x203fb2(%rip)        # 204fc8 <_GLOBAL_OFFSET_TABLE_+0x118>
    1016:	66 90                	xchg   %ax,%ax
    1018:	ff 25 b2 3f 20 00    	jmpq   *0x203fb2(%rip)        # 204fd0 <_GLOBAL_OFFSET_TABLE_+0x120>
    101e:	66 90                	xchg   %ax,%ax
    1020:	ff 25 b2 3f 20 00    	jmpq   *0x203fb2(%rip)        # 204fd8 <_GLOBAL_OFFSET_TABLE_+0x128>
    1026:	66 90                	xchg   %ax,%ax
    1028:	ff 25 ba 3f 20 00    	jmpq   *0x203fba(%rip)        # 204fe8 <_GLOBAL_OFFSET_TABLE_+0x138>
    102e:	66 90                	xchg   %ax,%ax
    1030:	ff 25 ba 3f 20 00    	jmpq   *0x203fba(%rip)        # 204ff0 <_GLOBAL_OFFSET_TABLE_+0x140>
    1036:	66 90                	xchg   %ax,%ax
    1038:	ff 25 ba 3f 20 00    	jmpq   *0x203fba(%rip)        # 204ff8 <_GLOBAL_OFFSET_TABLE_+0x148>
    103e:	66 90                	xchg   %ax,%ax

Disassembly of section .text:

0000000000001040 <_start>:
    1040:	31 ed                	xor    %ebp,%ebp
    1042:	49 89 d1             	mov    %rdx,%r9
    1045:	5e                   	pop    %rsi
    1046:	48 89 e2             	mov    %rsp,%rdx
    1049:	48 83 e4 f0          	and    $0xfffffffffffffff0,%rsp
    104d:	50                   	push   %rax
    104e:	54                   	push   %rsp
    104f:	4c 8d 05 5a 22 00 00 	lea    0x225a(%rip),%r8        # 32b0 <__libc_csu_fini>
    1056:	48 8d 0d e3 21 00 00 	lea    0x21e3(%rip),%rcx        # 3240 <__libc_csu_init>
    105d:	48 8d 3d 33 03 00 00 	lea    0x333(%rip),%rdi        # 1397 <main>
    1064:	ff 15 ce 3e 20 00    	callq  *0x203ece(%rip)        # 204f38 <_GLOBAL_OFFSET_TABLE_+0x88>
    106a:	f4                   	hlt    
    106b:	0f 1f 44 00 00       	nopl   0x0(%rax,%rax,1)

0000000000001070 <deregister_tm_clones>:
    1070:	48 8d 3d f9 42 20 00 	lea    0x2042f9(%rip),%rdi        # 205370 <__TMC_END__>
    1077:	48 8d 05 f9 42 20 00 	lea    0x2042f9(%rip),%rax        # 205377 <__TMC_END__+0x7>
    107e:	55                   	push   %rbp
    107f:	48 29 f8             	sub    %rdi,%rax
    1082:	48 89 e5             	mov    %rsp,%rbp
    1085:	48 83 f8 0e          	cmp    $0xe,%rax
    1089:	76 15                	jbe    10a0 <deregister_tm_clones+0x30>
    108b:	48 8b 05 56 3e 20 00 	mov    0x203e56(%rip),%rax        # 204ee8 <_GLOBAL_OFFSET_TABLE_+0x38>
    1092:	48 85 c0             	test   %rax,%rax
    1095:	74 09                	je     10a0 <deregister_tm_clones+0x30>
    1097:	5d                   	pop    %rbp
    1098:	ff e0                	jmpq   *%rax
    109a:	66 0f 1f 44 00 00    	nopw   0x0(%rax,%rax,1)
    10a0:	5d                   	pop    %rbp
    10a1:	c3                   	retq   
    10a2:	0f 1f 40 00          	nopl   0x0(%rax)
    10a6:	66 2e 0f 1f 84 00 00 	nopw   %cs:0x0(%rax,%rax,1)
    10ad:	00 00 00 

00000000000010b0 <register_tm_clones>:
    10b0:	48 8d 3d b9 42 20 00 	lea    0x2042b9(%rip),%rdi        # 205370 <__TMC_END__>
    10b7:	48 8d 35 b2 42 20 00 	lea    0x2042b2(%rip),%rsi        # 205370 <__TMC_END__>
    10be:	55                   	push   %rbp
    10bf:	48 29 fe             	sub    %rdi,%rsi
    10c2:	48 89 e5             	mov    %rsp,%rbp
    10c5:	48 c1 fe 03          	sar    $0x3,%rsi
    10c9:	48 89 f0             	mov    %rsi,%rax
    10cc:	48 c1 e8 3f          	shr    $0x3f,%rax
    10d0:	48 01 c6             	add    %rax,%rsi
    10d3:	48 d1 fe             	sar    %rsi
    10d6:	74 18                	je     10f0 <register_tm_clones+0x40>
    10d8:	48 8b 05 01 3f 20 00 	mov    0x203f01(%rip),%rax        # 204fe0 <_GLOBAL_OFFSET_TABLE_+0x130>
    10df:	48 85 c0             	test   %rax,%rax
    10e2:	74 0c                	je     10f0 <register_tm_clones+0x40>
    10e4:	5d                   	pop    %rbp
    10e5:	ff e0                	jmpq   *%rax
    10e7:	66 0f 1f 84 00 00 00 	nopw   0x0(%rax,%rax,1)
    10ee:	00 00 
    10f0:	5d                   	pop    %rbp
    10f1:	c3                   	retq   
    10f2:	0f 1f 40 00          	nopl   0x0(%rax)
    10f6:	66 2e 0f 1f 84 00 00 	nopw   %cs:0x0(%rax,%rax,1)
    10fd:	00 00 00 

0000000000001100 <__do_global_dtors_aux>:
    1100:	80 3d a1 42 20 00 00 	cmpb   $0x0,0x2042a1(%rip)        # 2053a8 <completed.7558>
    1107:	75 27                	jne    1130 <__do_global_dtors_aux+0x30>
    1109:	48 83 3d d7 3e 20 00 	cmpq   $0x0,0x203ed7(%rip)        # 204fe8 <_GLOBAL_OFFSET_TABLE_+0x138>
    1110:	00 
    1111:	55                   	push   %rbp
    1112:	48 89 e5             	mov    %rsp,%rbp
    1115:	74 0c                	je     1123 <__do_global_dtors_aux+0x23>
    1117:	48 8b 3d ea 3e 20 00 	mov    0x203eea(%rip),%rdi        # 205008 <__dso_handle>
    111e:	e8 05 ff ff ff       	callq  1028 <_init+0x128>
    1123:	e8 48 ff ff ff       	callq  1070 <deregister_tm_clones>
    1128:	5d                   	pop    %rbp
    1129:	c6 05 78 42 20 00 01 	movb   $0x1,0x204278(%rip)        # 2053a8 <completed.7558>
    1130:	f3 c3                	repz retq 
    1132:	0f 1f 40 00          	nopl   0x0(%rax)
    1136:	66 2e 0f 1f 84 00 00 	nopw   %cs:0x0(%rax,%rax,1)
    113d:	00 00 00 

0000000000001140 <frame_dummy>:
    1140:	48 8d 3d a1 3b 20 00 	lea    0x203ba1(%rip),%rdi        # 204ce8 <__JCR_END__>
    1147:	48 83 3f 00          	cmpq   $0x0,(%rdi)
    114b:	75 0b                	jne    1158 <frame_dummy+0x18>
    114d:	e9 5e ff ff ff       	jmpq   10b0 <register_tm_clones>
    1152:	66 0f 1f 44 00 00    	nopw   0x0(%rax,%rax,1)
    1158:	48 8b 05 49 3e 20 00 	mov    0x203e49(%rip),%rax        # 204fa8 <_GLOBAL_OFFSET_TABLE_+0xf8>
    115f:	48 85 c0             	test   %rax,%rax
    1162:	74 e9                	je     114d <frame_dummy+0xd>
    1164:	55                   	push   %rbp
    1165:	48 89 e5             	mov    %rsp,%rbp
    1168:	ff d0                	callq  *%rax
    116a:	5d                   	pop    %rbp
    116b:	e9 40 ff ff ff       	jmpq   10b0 <register_tm_clones>

0000000000001170 <usage>:
    1170:	48 83 ec 08          	sub    $0x8,%rsp
    1174:	48 89 fa             	mov    %rdi,%rdx
    1177:	83 3d 6a 42 20 00 00 	cmpl   $0x0,0x20426a(%rip)        # 2053e8 <is_checker>
    117e:	74 50                	je     11d0 <usage+0x60>
    1180:	48 8d 35 41 21 00 00 	lea    0x2141(%rip),%rsi        # 32c8 <_IO_stdin_used+0x8>
    1187:	bf 01 00 00 00       	mov    $0x1,%edi
    118c:	b8 00 00 00 00       	mov    $0x0,%eax
    1191:	e8 52 fe ff ff       	callq  fe8 <_init+0xe8>
    1196:	48 8d 3d 63 21 00 00 	lea    0x2163(%rip),%rdi        # 3300 <_IO_stdin_used+0x40>
    119d:	e8 b6 fd ff ff       	callq  f58 <_init+0x58>
    11a2:	48 8d 3d cf 22 00 00 	lea    0x22cf(%rip),%rdi        # 3478 <_IO_stdin_used+0x1b8>
    11a9:	e8 aa fd ff ff       	callq  f58 <_init+0x58>
    11ae:	48 8d 3d 73 21 00 00 	lea    0x2173(%rip),%rdi        # 3328 <_IO_stdin_used+0x68>
    11b5:	e8 9e fd ff ff       	callq  f58 <_init+0x58>
    11ba:	48 8d 3d d1 22 00 00 	lea    0x22d1(%rip),%rdi        # 3492 <_IO_stdin_used+0x1d2>
    11c1:	e8 92 fd ff ff       	callq  f58 <_init+0x58>
    11c6:	bf 00 00 00 00       	mov    $0x0,%edi
    11cb:	e8 40 fe ff ff       	callq  1010 <_init+0x110>
    11d0:	48 8d 35 d7 22 00 00 	lea    0x22d7(%rip),%rsi        # 34ae <_IO_stdin_used+0x1ee>
    11d7:	bf 01 00 00 00       	mov    $0x1,%edi
    11dc:	b8 00 00 00 00       	mov    $0x0,%eax
    11e1:	e8 02 fe ff ff       	callq  fe8 <_init+0xe8>
    11e6:	48 8d 3d 63 21 00 00 	lea    0x2163(%rip),%rdi        # 3350 <_IO_stdin_used+0x90>
    11ed:	e8 66 fd ff ff       	callq  f58 <_init+0x58>
    11f2:	48 8d 3d 7f 21 00 00 	lea    0x217f(%rip),%rdi        # 3378 <_IO_stdin_used+0xb8>
    11f9:	e8 5a fd ff ff       	callq  f58 <_init+0x58>
    11fe:	48 8d 3d c7 22 00 00 	lea    0x22c7(%rip),%rdi        # 34cc <_IO_stdin_used+0x20c>
    1205:	e8 4e fd ff ff       	callq  f58 <_init+0x58>
    120a:	eb ba                	jmp    11c6 <usage+0x56>

000000000000120c <initialize_target>:
    120c:	55                   	push   %rbp
    120d:	53                   	push   %rbx
    120e:	48 81 ec 18 21 00 00 	sub    $0x2118,%rsp
    1215:	89 f5                	mov    %esi,%ebp
    1217:	64 48 8b 04 25 28 00 	mov    %fs:0x28,%rax
    121e:	00 00 
    1220:	48 89 84 24 08 21 00 	mov    %rax,0x2108(%rsp)
    1227:	00 
    1228:	31 c0                	xor    %eax,%eax
    122a:	89 3d a8 41 20 00    	mov    %edi,0x2041a8(%rip)        # 2053d8 <check_level>
    1230:	8b 3d da 3d 20 00    	mov    0x203dda(%rip),%edi        # 205010 <target_id>
    1236:	e8 df 1f 00 00       	callq  321a <gencookie>
    123b:	89 05 a3 41 20 00    	mov    %eax,0x2041a3(%rip)        # 2053e4 <cookie>
    1241:	89 c7                	mov    %eax,%edi
    1243:	e8 d2 1f 00 00       	callq  321a <gencookie>
    1248:	89 05 92 41 20 00    	mov    %eax,0x204192(%rip)        # 2053e0 <authkey>
    124e:	8b 05 bc 3d 20 00    	mov    0x203dbc(%rip),%eax        # 205010 <target_id>
    1254:	8d 78 01             	lea    0x1(%rax),%edi
    1257:	e8 e4 fc ff ff       	callq  f40 <_init+0x40>
    125c:	e8 67 fd ff ff       	callq  fc8 <_init+0xc8>
    1261:	89 c7                	mov    %eax,%edi
    1263:	e8 2a 03 00 00       	callq  1592 <scramble>
    1268:	89 c3                	mov    %eax,%ebx
    126a:	85 ed                	test   %ebp,%ebp
    126c:	75 54                	jne    12c2 <initialize_target+0xb6>
    126e:	b8 00 00 00 00       	mov    $0x0,%eax
    1273:	01 d8                	add    %ebx,%eax
    1275:	0f b7 c0             	movzwl %ax,%eax
    1278:	8d 04 c5 00 01 00 00 	lea    0x100(,%rax,8),%eax
    127f:	89 c0                	mov    %eax,%eax
    1281:	48 89 05 d8 40 20 00 	mov    %rax,0x2040d8(%rip)        # 205360 <buf_offset>
    1288:	c6 05 79 4d 20 00 72 	movb   $0x72,0x204d79(%rip)        # 206008 <target_prefix>
    128f:	83 3d d2 40 20 00 00 	cmpl   $0x0,0x2040d2(%rip)        # 205368 <notify>
    1296:	74 09                	je     12a1 <initialize_target+0x95>
    1298:	83 3d 49 41 20 00 00 	cmpl   $0x0,0x204149(%rip)        # 2053e8 <is_checker>
    129f:	74 39                	je     12da <initialize_target+0xce>
    12a1:	48 8b 84 24 08 21 00 	mov    0x2108(%rsp),%rax
    12a8:	00 
    12a9:	64 48 33 04 25 28 00 	xor    %fs:0x28,%rax
    12b0:	00 00 
    12b2:	0f 85 da 00 00 00    	jne    1392 <initialize_target+0x186>
    12b8:	48 81 c4 18 21 00 00 	add    $0x2118,%rsp
    12bf:	5b                   	pop    %rbx
    12c0:	5d                   	pop    %rbp
    12c1:	c3                   	retq   
    12c2:	bf 00 00 00 00       	mov    $0x0,%edi
    12c7:	e8 f4 fc ff ff       	callq  fc0 <_init+0xc0>
    12cc:	89 c7                	mov    %eax,%edi
    12ce:	e8 6d fc ff ff       	callq  f40 <_init+0x40>
    12d3:	e8 f0 fc ff ff       	callq  fc8 <_init+0xc8>
    12d8:	eb 99                	jmp    1273 <initialize_target+0x67>
    12da:	48 89 e7             	mov    %rsp,%rdi
    12dd:	be 00 01 00 00       	mov    $0x100,%esi
    12e2:	e8 21 fd ff ff       	callq  1008 <_init+0x108>
    12e7:	89 c5                	mov    %eax,%ebp
    12e9:	85 c0                	test   %eax,%eax
    12eb:	75 26                	jne    1313 <initialize_target+0x107>
    12ed:	89 c3                	mov    %eax,%ebx
    12ef:	48 63 c3             	movslq %ebx,%rax
    12f2:	48 8d 15 47 3d 20 00 	lea    0x203d47(%rip),%rdx        # 205040 <host_table>
    12f9:	48 8b 3c c2          	mov    (%rdx,%rax,8),%rdi
    12fd:	48 85 ff             	test   %rdi,%rdi
    1300:	74 2c                	je     132e <initialize_target+0x122>
    1302:	48 89 e6             	mov    %rsp,%rsi
    1305:	e8 26 fc ff ff       	callq  f30 <_init+0x30>
    130a:	85 c0                	test   %eax,%eax
    130c:	74 1b                	je     1329 <initialize_target+0x11d>
    130e:	83 c3 01             	add    $0x1,%ebx
    1311:	eb dc                	jmp    12ef <initialize_target+0xe3>
    1313:	48 8d 3d 8e 20 00 00 	lea    0x208e(%rip),%rdi        # 33a8 <_IO_stdin_used+0xe8>
    131a:	e8 39 fc ff ff       	callq  f58 <_init+0x58>
    131f:	bf 08 00 00 00       	mov    $0x8,%edi
    1324:	e8 e7 fc ff ff       	callq  1010 <_init+0x110>
    1329:	bd 01 00 00 00       	mov    $0x1,%ebp
    132e:	85 ed                	test   %ebp,%ebp
    1330:	74 3d                	je     136f <initialize_target+0x163>
    1332:	48 8d bc 24 00 01 00 	lea    0x100(%rsp),%rdi
    1339:	00 
    133a:	e8 2d 1c 00 00       	callq  2f6c <init_driver>
    133f:	85 c0                	test   %eax,%eax
    1341:	0f 89 5a ff ff ff    	jns    12a1 <initialize_target+0x95>
    1347:	48 8d 94 24 00 01 00 	lea    0x100(%rsp),%rdx
    134e:	00 
    134f:	48 8d 35 ca 20 00 00 	lea    0x20ca(%rip),%rsi        # 3420 <_IO_stdin_used+0x160>
    1356:	bf 01 00 00 00       	mov    $0x1,%edi
    135b:	b8 00 00 00 00       	mov    $0x0,%eax
    1360:	e8 83 fc ff ff       	callq  fe8 <_init+0xe8>
    1365:	bf 08 00 00 00       	mov    $0x8,%edi
    136a:	e8 a1 fc ff ff       	callq  1010 <_init+0x110>
    136f:	48 89 e2             	mov    %rsp,%rdx
    1372:	48 8d 35 67 20 00 00 	lea    0x2067(%rip),%rsi        # 33e0 <_IO_stdin_used+0x120>
    1379:	bf 01 00 00 00       	mov    $0x1,%edi
    137e:	b8 00 00 00 00       	mov    $0x0,%eax
    1383:	e8 60 fc ff ff       	callq  fe8 <_init+0xe8>
    1388:	bf 08 00 00 00       	mov    $0x8,%edi
    138d:	e8 7e fc ff ff       	callq  1010 <_init+0x110>
    1392:	e8 d1 fb ff ff       	callq  f68 <_init+0x68>

0000000000001397 <main>:
    1397:	41 56                	push   %r14
    1399:	41 55                	push   %r13
    139b:	41 54                	push   %r12
    139d:	55                   	push   %rbp
    139e:	53                   	push   %rbx
    139f:	41 89 fc             	mov    %edi,%r12d
    13a2:	48 89 f3             	mov    %rsi,%rbx
    13a5:	48 8d 35 a0 0e 00 00 	lea    0xea0(%rip),%rsi        # 224c <seghandler>
    13ac:	bf 0b 00 00 00       	mov    $0xb,%edi
    13b1:	e8 e2 fb ff ff       	callq  f98 <_init+0x98>
    13b6:	48 8d 35 3b 0e 00 00 	lea    0xe3b(%rip),%rsi        # 21f8 <bushandler>
    13bd:	bf 07 00 00 00       	mov    $0x7,%edi
    13c2:	e8 d1 fb ff ff       	callq  f98 <_init+0x98>
    13c7:	48 8d 35 d2 0e 00 00 	lea    0xed2(%rip),%rsi        # 22a0 <illegalhandler>
    13ce:	bf 04 00 00 00       	mov    $0x4,%edi
    13d3:	e8 c0 fb ff ff       	callq  f98 <_init+0x98>
    13d8:	83 3d 09 40 20 00 00 	cmpl   $0x0,0x204009(%rip)        # 2053e8 <is_checker>
    13df:	75 58                	jne    1439 <main+0xa2>
    13e1:	48 8d 2d fd 20 00 00 	lea    0x20fd(%rip),%rbp        # 34e5 <_IO_stdin_used+0x225>
    13e8:	48 8b 05 91 3f 20 00 	mov    0x203f91(%rip),%rax        # 205380 <stdin@@GLIBC_2.2.5>
    13ef:	48 89 05 da 3f 20 00 	mov    %rax,0x203fda(%rip)        # 2053d0 <infile>
    13f6:	41 bd 00 00 00 00    	mov    $0x0,%r13d
    13fc:	41 be 00 00 00 00    	mov    $0x0,%r14d
    1402:	48 89 ea             	mov    %rbp,%rdx
    1405:	48 89 de             	mov    %rbx,%rsi
    1408:	44 89 e7             	mov    %r12d,%edi
    140b:	e8 e8 fb ff ff       	callq  ff8 <_init+0xf8>
    1410:	3c ff                	cmp    $0xff,%al
    1412:	0f 84 02 01 00 00    	je     151a <main+0x183>
    1418:	0f be d0             	movsbl %al,%edx
    141b:	83 e8 61             	sub    $0x61,%eax
    141e:	3c 10                	cmp    $0x10,%al
    1420:	0f 87 d6 00 00 00    	ja     14fc <main+0x165>
    1426:	0f b6 c0             	movzbl %al,%eax
    1429:	48 8d 0d 00 21 00 00 	lea    0x2100(%rip),%rcx        # 3530 <_IO_stdin_used+0x270>
    1430:	48 63 04 81          	movslq (%rcx,%rax,4),%rax
    1434:	48 01 c8             	add    %rcx,%rax
    1437:	ff e0                	jmpq   *%rax
    1439:	48 8d 35 b4 0e 00 00 	lea    0xeb4(%rip),%rsi        # 22f4 <sigalrmhandler>
    1440:	bf 0e 00 00 00       	mov    $0xe,%edi
    1445:	e8 4e fb ff ff       	callq  f98 <_init+0x98>
    144a:	bf 05 00 00 00       	mov    $0x5,%edi
    144f:	e8 2c fb ff ff       	callq  f80 <_init+0x80>
    1454:	48 8d 2d 8f 20 00 00 	lea    0x208f(%rip),%rbp        # 34ea <_IO_stdin_used+0x22a>
    145b:	eb 8b                	jmp    13e8 <main+0x51>
    145d:	48 8b 3b             	mov    (%rbx),%rdi
    1460:	e8 0b fd ff ff       	callq  1170 <usage>
    1465:	48 8d 35 91 23 00 00 	lea    0x2391(%rip),%rsi        # 37fd <_IO_stdin_used+0x53d>
    146c:	48 8b 3d 15 3f 20 00 	mov    0x203f15(%rip),%rdi        # 205388 <optarg@@GLIBC_2.2.5>
    1473:	e8 78 fb ff ff       	callq  ff0 <_init+0xf0>
    1478:	48 89 05 51 3f 20 00 	mov    %rax,0x203f51(%rip)        # 2053d0 <infile>
    147f:	48 85 c0             	test   %rax,%rax
    1482:	0f 85 7a ff ff ff    	jne    1402 <main+0x6b>
    1488:	48 8b 0d f9 3e 20 00 	mov    0x203ef9(%rip),%rcx        # 205388 <optarg@@GLIBC_2.2.5>
    148f:	48 8d 15 5c 20 00 00 	lea    0x205c(%rip),%rdx        # 34f2 <_IO_stdin_used+0x232>
    1496:	be 01 00 00 00       	mov    $0x1,%esi
    149b:	48 8b 3d fe 3e 20 00 	mov    0x203efe(%rip),%rdi        # 2053a0 <stderr@@GLIBC_2.2.5>
    14a2:	e8 79 fb ff ff       	callq  1020 <_init+0x120>
    14a7:	b8 01 00 00 00       	mov    $0x1,%eax
    14ac:	e9 d8 00 00 00       	jmpq   1589 <main+0x1f2>
    14b1:	ba 10 00 00 00       	mov    $0x10,%edx
    14b6:	be 00 00 00 00       	mov    $0x0,%esi
    14bb:	48 8b 3d c6 3e 20 00 	mov    0x203ec6(%rip),%rdi        # 205388 <optarg@@GLIBC_2.2.5>
    14c2:	e8 39 fb ff ff       	callq  1000 <_init+0x100>
    14c7:	41 89 c6             	mov    %eax,%r14d
    14ca:	e9 33 ff ff ff       	jmpq   1402 <main+0x6b>
    14cf:	ba 0a 00 00 00       	mov    $0xa,%edx
    14d4:	be 00 00 00 00       	mov    $0x0,%esi
    14d9:	48 8b 3d a8 3e 20 00 	mov    0x203ea8(%rip),%rdi        # 205388 <optarg@@GLIBC_2.2.5>
    14e0:	e8 cb fa ff ff       	callq  fb0 <_init+0xb0>
    14e5:	41 89 c5             	mov    %eax,%r13d
    14e8:	e9 15 ff ff ff       	jmpq   1402 <main+0x6b>
    14ed:	c7 05 71 3e 20 00 00 	movl   $0x0,0x203e71(%rip)        # 205368 <notify>
    14f4:	00 00 00 
    14f7:	e9 06 ff ff ff       	jmpq   1402 <main+0x6b>
    14fc:	48 8d 35 0c 20 00 00 	lea    0x200c(%rip),%rsi        # 350f <_IO_stdin_used+0x24f>
    1503:	bf 01 00 00 00       	mov    $0x1,%edi
    1508:	b8 00 00 00 00       	mov    $0x0,%eax
    150d:	e8 d6 fa ff ff       	callq  fe8 <_init+0xe8>
    1512:	48 8b 3b             	mov    (%rbx),%rdi
    1515:	e8 56 fc ff ff       	callq  1170 <usage>
    151a:	be 01 00 00 00       	mov    $0x1,%esi
    151f:	44 89 ef             	mov    %r13d,%edi
    1522:	e8 e5 fc ff ff       	callq  120c <initialize_target>
    1527:	83 3d ba 3e 20 00 00 	cmpl   $0x0,0x203eba(%rip)        # 2053e8 <is_checker>
    152e:	74 2c                	je     155c <main+0x1c5>
    1530:	44 3b 35 a9 3e 20 00 	cmp    0x203ea9(%rip),%r14d        # 2053e0 <authkey>
    1537:	74 23                	je     155c <main+0x1c5>
    1539:	44 89 f2             	mov    %r14d,%edx
    153c:	48 8d 35 05 1f 00 00 	lea    0x1f05(%rip),%rsi        # 3448 <_IO_stdin_used+0x188>
    1543:	bf 01 00 00 00       	mov    $0x1,%edi
    1548:	b8 00 00 00 00       	mov    $0x0,%eax
    154d:	e8 96 fa ff ff       	callq  fe8 <_init+0xe8>
    1552:	b8 00 00 00 00       	mov    $0x0,%eax
    1557:	e8 fc 08 00 00       	callq  1e58 <check_fail>
    155c:	8b 15 82 3e 20 00    	mov    0x203e82(%rip),%edx        # 2053e4 <cookie>
    1562:	48 8d 35 b9 1f 00 00 	lea    0x1fb9(%rip),%rsi        # 3522 <_IO_stdin_used+0x262>
    1569:	bf 01 00 00 00       	mov    $0x1,%edi
    156e:	b8 00 00 00 00       	mov    $0x0,%eax
    1573:	e8 70 fa ff ff       	callq  fe8 <_init+0xe8>
    1578:	48 8b 3d e1 3d 20 00 	mov    0x203de1(%rip),%rdi        # 205360 <buf_offset>
    157f:	e8 c7 0d 00 00       	callq  234b <launch>
    1584:	b8 00 00 00 00       	mov    $0x0,%eax
    1589:	5b                   	pop    %rbx
    158a:	5d                   	pop    %rbp
    158b:	41 5c                	pop    %r12
    158d:	41 5d                	pop    %r13
    158f:	41 5e                	pop    %r14
    1591:	c3                   	retq   

0000000000001592 <scramble>:
    1592:	48 83 ec 38          	sub    $0x38,%rsp
    1596:	64 48 8b 04 25 28 00 	mov    %fs:0x28,%rax
    159d:	00 00 
    159f:	48 89 44 24 28       	mov    %rax,0x28(%rsp)
    15a4:	31 c0                	xor    %eax,%eax
    15a6:	eb 10                	jmp    15b8 <scramble+0x26>
    15a8:	69 d0 0a fc 00 00    	imul   $0xfc0a,%eax,%edx
    15ae:	01 fa                	add    %edi,%edx
    15b0:	89 c1                	mov    %eax,%ecx
    15b2:	89 14 8c             	mov    %edx,(%rsp,%rcx,4)
    15b5:	83 c0 01             	add    $0x1,%eax
    15b8:	83 f8 09             	cmp    $0x9,%eax
    15bb:	76 eb                	jbe    15a8 <scramble+0x16>
    15bd:	8b 44 24 10          	mov    0x10(%rsp),%eax
    15c1:	69 c0 58 aa 00 00    	imul   $0xaa58,%eax,%eax
    15c7:	89 44 24 10          	mov    %eax,0x10(%rsp)
    15cb:	8b 44 24 0c          	mov    0xc(%rsp),%eax
    15cf:	69 c0 5a c0 00 00    	imul   $0xc05a,%eax,%eax
    15d5:	89 44 24 0c          	mov    %eax,0xc(%rsp)
    15d9:	8b 44 24 10          	mov    0x10(%rsp),%eax
    15dd:	69 c0 3b 74 00 00    	imul   $0x743b,%eax,%eax
    15e3:	89 44 24 10          	mov    %eax,0x10(%rsp)
    15e7:	8b 44 24 08          	mov    0x8(%rsp),%eax
    15eb:	69 c0 3a 37 00 00    	imul   $0x373a,%eax,%eax
    15f1:	89 44 24 08          	mov    %eax,0x8(%rsp)
    15f5:	8b 44 24 0c          	mov    0xc(%rsp),%eax
    15f9:	69 c0 ec 8f 00 00    	imul   $0x8fec,%eax,%eax
    15ff:	89 44 24 0c          	mov    %eax,0xc(%rsp)
    1603:	8b 44 24 20          	mov    0x20(%rsp),%eax
    1607:	69 c0 f1 13 00 00    	imul   $0x13f1,%eax,%eax
    160d:	89 44 24 20          	mov    %eax,0x20(%rsp)
    1611:	8b 44 24 04          	mov    0x4(%rsp),%eax
    1615:	69 c0 ad 85 00 00    	imul   $0x85ad,%eax,%eax
    161b:	89 44 24 04          	mov    %eax,0x4(%rsp)
    161f:	8b 44 24 04          	mov    0x4(%rsp),%eax
    1623:	69 c0 ed 8d 00 00    	imul   $0x8ded,%eax,%eax
    1629:	89 44 24 04          	mov    %eax,0x4(%rsp)
    162d:	8b 04 24             	mov    (%rsp),%eax
    1630:	69 c0 25 59 00 00    	imul   $0x5925,%eax,%eax
    1636:	89 04 24             	mov    %eax,(%rsp)
    1639:	8b 04 24             	mov    (%rsp),%eax
    163c:	69 c0 f9 17 00 00    	imul   $0x17f9,%eax,%eax
    1642:	89 04 24             	mov    %eax,(%rsp)
    1645:	8b 44 24 18          	mov    0x18(%rsp),%eax
    1649:	69 c0 7f d2 00 00    	imul   $0xd27f,%eax,%eax
    164f:	89 44 24 18          	mov    %eax,0x18(%rsp)
    1653:	8b 44 24 1c          	mov    0x1c(%rsp),%eax
    1657:	69 c0 60 ba 00 00    	imul   $0xba60,%eax,%eax
    165d:	89 44 24 1c          	mov    %eax,0x1c(%rsp)
    1661:	8b 44 24 24          	mov    0x24(%rsp),%eax
    1665:	69 c0 12 f3 00 00    	imul   $0xf312,%eax,%eax
    166b:	89 44 24 24          	mov    %eax,0x24(%rsp)
    166f:	8b 44 24 08          	mov    0x8(%rsp),%eax
    1673:	69 c0 19 ea 00 00    	imul   $0xea19,%eax,%eax
    1679:	89 44 24 08          	mov    %eax,0x8(%rsp)
    167d:	8b 04 24             	mov    (%rsp),%eax
    1680:	69 c0 10 89 00 00    	imul   $0x8910,%eax,%eax
    1686:	89 04 24             	mov    %eax,(%rsp)
    1689:	8b 44 24 10          	mov    0x10(%rsp),%eax
    168d:	69 c0 40 c9 00 00    	imul   $0xc940,%eax,%eax
    1693:	89 44 24 10          	mov    %eax,0x10(%rsp)
    1697:	8b 44 24 10          	mov    0x10(%rsp),%eax
    169b:	69 c0 2f a4 00 00    	imul   $0xa42f,%eax,%eax
    16a1:	89 44 24 10          	mov    %eax,0x10(%rsp)
    16a5:	8b 44 24 18          	mov    0x18(%rsp),%eax
    16a9:	69 c0 17 27 00 00    	imul   $0x2717,%eax,%eax
    16af:	89 44 24 18          	mov    %eax,0x18(%rsp)
    16b3:	8b 44 24 08          	mov    0x8(%rsp),%eax
    16b7:	69 c0 d8 da 00 00    	imul   $0xdad8,%eax,%eax
    16bd:	89 44 24 08          	mov    %eax,0x8(%rsp)
    16c1:	8b 04 24             	mov    (%rsp),%eax
    16c4:	69 c0 4a 43 00 00    	imul   $0x434a,%eax,%eax
    16ca:	89 04 24             	mov    %eax,(%rsp)
    16cd:	8b 44 24 14          	mov    0x14(%rsp),%eax
    16d1:	69 c0 d3 e1 00 00    	imul   $0xe1d3,%eax,%eax
    16d7:	89 44 24 14          	mov    %eax,0x14(%rsp)
    16db:	8b 04 24             	mov    (%rsp),%eax
    16de:	69 c0 b0 c0 00 00    	imul   $0xc0b0,%eax,%eax
    16e4:	89 04 24             	mov    %eax,(%rsp)
    16e7:	8b 44 24 1c          	mov    0x1c(%rsp),%eax
    16eb:	69 c0 c0 a4 00 00    	imul   $0xa4c0,%eax,%eax
    16f1:	89 44 24 1c          	mov    %eax,0x1c(%rsp)
    16f5:	8b 44 24 04          	mov    0x4(%rsp),%eax
    16f9:	69 c0 73 87 00 00    	imul   $0x8773,%eax,%eax
    16ff:	89 44 24 04          	mov    %eax,0x4(%rsp)
    1703:	8b 44 24 10          	mov    0x10(%rsp),%eax
    1707:	69 c0 67 de 00 00    	imul   $0xde67,%eax,%eax
    170d:	89 44 24 10          	mov    %eax,0x10(%rsp)
    1711:	8b 44 24 20          	mov    0x20(%rsp),%eax
    1715:	69 c0 14 de 00 00    	imul   $0xde14,%eax,%eax
    171b:	89 44 24 20          	mov    %eax,0x20(%rsp)
    171f:	8b 44 24 18          	mov    0x18(%rsp),%eax
    1723:	69 c0 54 61 00 00    	imul   $0x6154,%eax,%eax
    1729:	89 44 24 18          	mov    %eax,0x18(%rsp)
    172d:	8b 44 24 1c          	mov    0x1c(%rsp),%eax
    1731:	69 c0 8e 73 00 00    	imul   $0x738e,%eax,%eax
    1737:	89 44 24 1c          	mov    %eax,0x1c(%rsp)
    173b:	8b 44 24 1c          	mov    0x1c(%rsp),%eax
    173f:	69 c0 09 e5 00 00    	imul   $0xe509,%eax,%eax
    1745:	89 44 24 1c          	mov    %eax,0x1c(%rsp)
    1749:	8b 04 24             	mov    (%rsp),%eax
    174c:	69 c0 9d 21 00 00    	imul   $0x219d,%eax,%eax
    1752:	89 04 24             	mov    %eax,(%rsp)
    1755:	8b 44 24 14          	mov    0x14(%rsp),%eax
    1759:	69 c0 c4 ab 00 00    	imul   $0xabc4,%eax,%eax
    175f:	89 44 24 14          	mov    %eax,0x14(%rsp)
    1763:	8b 44 24 0c          	mov    0xc(%rsp),%eax
    1767:	69 c0 82 a1 00 00    	imul   $0xa182,%eax,%eax
    176d:	89 44 24 0c          	mov    %eax,0xc(%rsp)
    1771:	8b 44 24 18          	mov    0x18(%rsp),%eax
    1775:	69 c0 77 74 00 00    	imul   $0x7477,%eax,%eax
    177b:	89 44 24 18          	mov    %eax,0x18(%rsp)
    177f:	8b 44 24 24          	mov    0x24(%rsp),%eax
    1783:	69 c0 5d 68 00 00    	imul   $0x685d,%eax,%eax
    1789:	89 44 24 24          	mov    %eax,0x24(%rsp)
    178d:	8b 44 24 10          	mov    0x10(%rsp),%eax
    1791:	69 c0 ec 26 00 00    	imul   $0x26ec,%eax,%eax
    1797:	89 44 24 10          	mov    %eax,0x10(%rsp)
    179b:	8b 44 24 24          	mov    0x24(%rsp),%eax
    179f:	69 c0 14 ba 00 00    	imul   $0xba14,%eax,%eax
    17a5:	89 44 24 24          	mov    %eax,0x24(%rsp)
    17a9:	8b 04 24             	mov    (%rsp),%eax
    17ac:	69 c0 e3 02 00 00    	imul   $0x2e3,%eax,%eax
    17b2:	89 04 24             	mov    %eax,(%rsp)
    17b5:	8b 44 24 18          	mov    0x18(%rsp),%eax
    17b9:	69 c0 3f 70 00 00    	imul   $0x703f,%eax,%eax
    17bf:	89 44 24 18          	mov    %eax,0x18(%rsp)
    17c3:	8b 44 24 08          	mov    0x8(%rsp),%eax
    17c7:	69 c0 62 c9 00 00    	imul   $0xc962,%eax,%eax
    17cd:	89 44 24 08          	mov    %eax,0x8(%rsp)
    17d1:	8b 44 24 1c          	mov    0x1c(%rsp),%eax
    17d5:	69 c0 89 a5 00 00    	imul   $0xa589,%eax,%eax
    17db:	89 44 24 1c          	mov    %eax,0x1c(%rsp)
    17df:	8b 44 24 04          	mov    0x4(%rsp),%eax
    17e3:	69 c0 1e 97 00 00    	imul   $0x971e,%eax,%eax
    17e9:	89 44 24 04          	mov    %eax,0x4(%rsp)
    17ed:	8b 44 24 20          	mov    0x20(%rsp),%eax
    17f1:	69 c0 b0 58 00 00    	imul   $0x58b0,%eax,%eax
    17f7:	89 44 24 20          	mov    %eax,0x20(%rsp)
    17fb:	8b 44 24 18          	mov    0x18(%rsp),%eax
    17ff:	69 c0 11 1c 00 00    	imul   $0x1c11,%eax,%eax
    1805:	89 44 24 18          	mov    %eax,0x18(%rsp)
    1809:	8b 44 24 14          	mov    0x14(%rsp),%eax
    180d:	69 c0 d9 4c 00 00    	imul   $0x4cd9,%eax,%eax
    1813:	89 44 24 14          	mov    %eax,0x14(%rsp)
    1817:	8b 44 24 18          	mov    0x18(%rsp),%eax
    181b:	69 c0 e5 29 00 00    	imul   $0x29e5,%eax,%eax
    1821:	89 44 24 18          	mov    %eax,0x18(%rsp)
    1825:	8b 44 24 0c          	mov    0xc(%rsp),%eax
    1829:	69 c0 35 6f 00 00    	imul   $0x6f35,%eax,%eax
    182f:	89 44 24 0c          	mov    %eax,0xc(%rsp)
    1833:	8b 44 24 14          	mov    0x14(%rsp),%eax
    1837:	69 c0 53 59 00 00    	imul   $0x5953,%eax,%eax
    183d:	89 44 24 14          	mov    %eax,0x14(%rsp)
    1841:	8b 44 24 10          	mov    0x10(%rsp),%eax
    1845:	69 c0 9c 25 00 00    	imul   $0x259c,%eax,%eax
    184b:	89 44 24 10          	mov    %eax,0x10(%rsp)
    184f:	8b 04 24             	mov    (%rsp),%eax
    1852:	69 c0 51 d9 00 00    	imul   $0xd951,%eax,%eax
    1858:	89 04 24             	mov    %eax,(%rsp)
    185b:	8b 44 24 0c          	mov    0xc(%rsp),%eax
    185f:	69 c0 1a 1d 00 00    	imul   $0x1d1a,%eax,%eax
    1865:	89 44 24 0c          	mov    %eax,0xc(%rsp)
    1869:	8b 44 24 18          	mov    0x18(%rsp),%eax
    186d:	69 c0 a2 39 00 00    	imul   $0x39a2,%eax,%eax
    1873:	89 44 24 18          	mov    %eax,0x18(%rsp)
    1877:	8b 44 24 14          	mov    0x14(%rsp),%eax
    187b:	69 c0 fc 08 00 00    	imul   $0x8fc,%eax,%eax
    1881:	89 44 24 14          	mov    %eax,0x14(%rsp)
    1885:	8b 44 24 0c          	mov    0xc(%rsp),%eax
    1889:	69 c0 f2 51 00 00    	imul   $0x51f2,%eax,%eax
    188f:	89 44 24 0c          	mov    %eax,0xc(%rsp)
    1893:	8b 44 24 18          	mov    0x18(%rsp),%eax
    1897:	69 c0 29 e4 00 00    	imul   $0xe429,%eax,%eax
    189d:	89 44 24 18          	mov    %eax,0x18(%rsp)
    18a1:	8b 44 24 04          	mov    0x4(%rsp),%eax
    18a5:	69 c0 ed 70 00 00    	imul   $0x70ed,%eax,%eax
    18ab:	89 44 24 04          	mov    %eax,0x4(%rsp)
    18af:	8b 44 24 04          	mov    0x4(%rsp),%eax
    18b3:	69 c0 1e c3 00 00    	imul   $0xc31e,%eax,%eax
    18b9:	89 44 24 04          	mov    %eax,0x4(%rsp)
    18bd:	8b 44 24 10          	mov    0x10(%rsp),%eax
    18c1:	69 c0 50 0d 00 00    	imul   $0xd50,%eax,%eax
    18c7:	89 44 24 10          	mov    %eax,0x10(%rsp)
    18cb:	8b 44 24 10          	mov    0x10(%rsp),%eax
    18cf:	6b c0 7e             	imul   $0x7e,%eax,%eax
    18d2:	89 44 24 10          	mov    %eax,0x10(%rsp)
    18d6:	8b 44 24 04          	mov    0x4(%rsp),%eax
    18da:	69 c0 0c e8 00 00    	imul   $0xe80c,%eax,%eax
    18e0:	89 44 24 04          	mov    %eax,0x4(%rsp)
    18e4:	8b 44 24 14          	mov    0x14(%rsp),%eax
    18e8:	69 c0 7d 2a 00 00    	imul   $0x2a7d,%eax,%eax
    18ee:	89 44 24 14          	mov    %eax,0x14(%rsp)
    18f2:	8b 44 24 20          	mov    0x20(%rsp),%eax
    18f6:	69 c0 ce bb 00 00    	imul   $0xbbce,%eax,%eax
    18fc:	89 44 24 20          	mov    %eax,0x20(%rsp)
    1900:	8b 44 24 0c          	mov    0xc(%rsp),%eax
    1904:	69 c0 9b e7 00 00    	imul   $0xe79b,%eax,%eax
    190a:	89 44 24 0c          	mov    %eax,0xc(%rsp)
    190e:	8b 44 24 1c          	mov    0x1c(%rsp),%eax
    1912:	69 c0 69 aa 00 00    	imul   $0xaa69,%eax,%eax
    1918:	89 44 24 1c          	mov    %eax,0x1c(%rsp)
    191c:	8b 44 24 1c          	mov    0x1c(%rsp),%eax
    1920:	69 c0 ec e2 00 00    	imul   $0xe2ec,%eax,%eax
    1926:	89 44 24 1c          	mov    %eax,0x1c(%rsp)
    192a:	8b 44 24 10          	mov    0x10(%rsp),%eax
    192e:	69 c0 31 9b 00 00    	imul   $0x9b31,%eax,%eax
    1934:	89 44 24 10          	mov    %eax,0x10(%rsp)
    1938:	8b 44 24 14          	mov    0x14(%rsp),%eax
    193c:	69 c0 f8 83 00 00    	imul   $0x83f8,%eax,%eax
    1942:	89 44 24 14          	mov    %eax,0x14(%rsp)
    1946:	8b 44 24 1c          	mov    0x1c(%rsp),%eax
    194a:	69 c0 34 d7 00 00    	imul   $0xd734,%eax,%eax
    1950:	89 44 24 1c          	mov    %eax,0x1c(%rsp)
    1954:	8b 44 24 20          	mov    0x20(%rsp),%eax
    1958:	69 c0 59 11 00 00    	imul   $0x1159,%eax,%eax
    195e:	89 44 24 20          	mov    %eax,0x20(%rsp)
    1962:	8b 44 24 10          	mov    0x10(%rsp),%eax
    1966:	69 c0 30 06 00 00    	imul   $0x630,%eax,%eax
    196c:	89 44 24 10          	mov    %eax,0x10(%rsp)
    1970:	8b 44 24 18          	mov    0x18(%rsp),%eax
    1974:	69 c0 7b 44 00 00    	imul   $0x447b,%eax,%eax
    197a:	89 44 24 18          	mov    %eax,0x18(%rsp)
    197e:	8b 44 24 0c          	mov    0xc(%rsp),%eax
    1982:	69 c0 35 7f 00 00    	imul   $0x7f35,%eax,%eax
    1988:	89 44 24 0c          	mov    %eax,0xc(%rsp)
    198c:	8b 44 24 08          	mov    0x8(%rsp),%eax
    1990:	69 c0 29 7f 00 00    	imul   $0x7f29,%eax,%eax
    1996:	89 44 24 08          	mov    %eax,0x8(%rsp)
    199a:	8b 44 24 0c          	mov    0xc(%rsp),%eax
    199e:	69 c0 67 23 00 00    	imul   $0x2367,%eax,%eax
    19a4:	89 44 24 0c          	mov    %eax,0xc(%rsp)
    19a8:	8b 44 24 24          	mov    0x24(%rsp),%eax
    19ac:	69 c0 e8 b5 00 00    	imul   $0xb5e8,%eax,%eax
    19b2:	89 44 24 24          	mov    %eax,0x24(%rsp)
    19b6:	8b 44 24 1c          	mov    0x1c(%rsp),%eax
    19ba:	69 c0 ff cc 00 00    	imul   $0xccff,%eax,%eax
    19c0:	89 44 24 1c          	mov    %eax,0x1c(%rsp)
    19c4:	8b 44 24 14          	mov    0x14(%rsp),%eax
    19c8:	69 c0 64 1d 00 00    	imul   $0x1d64,%eax,%eax
    19ce:	89 44 24 14          	mov    %eax,0x14(%rsp)
    19d2:	8b 44 24 14          	mov    0x14(%rsp),%eax
    19d6:	69 c0 17 7a 00 00    	imul   $0x7a17,%eax,%eax
    19dc:	89 44 24 14          	mov    %eax,0x14(%rsp)
    19e0:	8b 04 24             	mov    (%rsp),%eax
    19e3:	69 c0 ee 9d 00 00    	imul   $0x9dee,%eax,%eax
    19e9:	89 04 24             	mov    %eax,(%rsp)
    19ec:	8b 44 24 20          	mov    0x20(%rsp),%eax
    19f0:	69 c0 37 12 00 00    	imul   $0x1237,%eax,%eax
    19f6:	89 44 24 20          	mov    %eax,0x20(%rsp)
    19fa:	8b 44 24 18          	mov    0x18(%rsp),%eax
    19fe:	69 c0 3b a8 00 00    	imul   $0xa83b,%eax,%eax
    1a04:	89 44 24 18          	mov    %eax,0x18(%rsp)
    1a08:	8b 44 24 08          	mov    0x8(%rsp),%eax
    1a0c:	69 c0 e0 80 00 00    	imul   $0x80e0,%eax,%eax
    1a12:	89 44 24 08          	mov    %eax,0x8(%rsp)
    1a16:	8b 44 24 10          	mov    0x10(%rsp),%eax
    1a1a:	69 c0 3c 82 00 00    	imul   $0x823c,%eax,%eax
    1a20:	89 44 24 10          	mov    %eax,0x10(%rsp)
    1a24:	8b 44 24 14          	mov    0x14(%rsp),%eax
    1a28:	69 c0 29 b9 00 00    	imul   $0xb929,%eax,%eax
    1a2e:	89 44 24 14          	mov    %eax,0x14(%rsp)
    1a32:	8b 44 24 04          	mov    0x4(%rsp),%eax
    1a36:	69 c0 3b 81 00 00    	imul   $0x813b,%eax,%eax
    1a3c:	89 44 24 04          	mov    %eax,0x4(%rsp)
    1a40:	8b 04 24             	mov    (%rsp),%eax
    1a43:	69 c0 17 89 00 00    	imul   $0x8917,%eax,%eax
    1a49:	89 04 24             	mov    %eax,(%rsp)
    1a4c:	8b 44 24 24          	mov    0x24(%rsp),%eax
    1a50:	69 c0 77 36 00 00    	imul   $0x3677,%eax,%eax
    1a56:	89 44 24 24          	mov    %eax,0x24(%rsp)
    1a5a:	8b 44 24 04          	mov    0x4(%rsp),%eax
    1a5e:	69 c0 4f cd 00 00    	imul   $0xcd4f,%eax,%eax
    1a64:	89 44 24 04          	mov    %eax,0x4(%rsp)
    1a68:	8b 44 24 10          	mov    0x10(%rsp),%eax
    1a6c:	69 c0 d3 94 00 00    	imul   $0x94d3,%eax,%eax
    1a72:	89 44 24 10          	mov    %eax,0x10(%rsp)
    1a76:	8b 44 24 24          	mov    0x24(%rsp),%eax
    1a7a:	69 c0 48 35 00 00    	imul   $0x3548,%eax,%eax
    1a80:	89 44 24 24          	mov    %eax,0x24(%rsp)
    1a84:	8b 44 24 0c          	mov    0xc(%rsp),%eax
    1a88:	69 c0 29 fc 00 00    	imul   $0xfc29,%eax,%eax
    1a8e:	89 44 24 0c          	mov    %eax,0xc(%rsp)
    1a92:	ba 00 00 00 00       	mov    $0x0,%edx
    1a97:	b8 00 00 00 00       	mov    $0x0,%eax
    1a9c:	eb 0a                	jmp    1aa8 <scramble+0x516>
    1a9e:	89 d1                	mov    %edx,%ecx
    1aa0:	8b 0c 8c             	mov    (%rsp,%rcx,4),%ecx
    1aa3:	01 c8                	add    %ecx,%eax
    1aa5:	83 c2 01             	add    $0x1,%edx
    1aa8:	83 fa 09             	cmp    $0x9,%edx
    1aab:	76 f1                	jbe    1a9e <scramble+0x50c>
    1aad:	48 8b 74 24 28       	mov    0x28(%rsp),%rsi
    1ab2:	64 48 33 34 25 28 00 	xor    %fs:0x28,%rsi
    1ab9:	00 00 
    1abb:	75 05                	jne    1ac2 <scramble+0x530>
    1abd:	48 83 c4 38          	add    $0x38,%rsp
    1ac1:	c3                   	retq   
    1ac2:	e8 a1 f4 ff ff       	callq  f68 <_init+0x68>

0000000000001ac7 <getbuf>:
    1ac7:	48 83 ec 18          	sub    $0x18,%rsp
    1acb:	48 89 e7             	mov    %rsp,%rdi
    1ace:	e8 bd 03 00 00       	callq  1e90 <Gets>
    1ad3:	b8 01 00 00 00       	mov    $0x1,%eax
    1ad8:	48 83 c4 18          	add    $0x18,%rsp
    1adc:	c3                   	retq   

0000000000001add <touch1>:
    1add:	48 83 ec 08          	sub    $0x8,%rsp
    1ae1:	c7 05 f1 38 20 00 01 	movl   $0x1,0x2038f1(%rip)        # 2053dc <vlevel>
    1ae8:	00 00 00 
    1aeb:	48 8d 3d 64 1b 00 00 	lea    0x1b64(%rip),%rdi        # 3656 <_IO_stdin_used+0x396>
    1af2:	e8 61 f4 ff ff       	callq  f58 <_init+0x58>
    1af7:	bf 01 00 00 00       	mov    $0x1,%edi
    1afc:	e8 ff 05 00 00       	callq  2100 <validate>
    1b01:	bf 00 00 00 00       	mov    $0x0,%edi
    1b06:	e8 05 f5 ff ff       	callq  1010 <_init+0x110>

0000000000001b0b <touch2>:
    1b0b:	48 83 ec 08          	sub    $0x8,%rsp
    1b0f:	89 fa                	mov    %edi,%edx
    1b11:	c7 05 c1 38 20 00 02 	movl   $0x2,0x2038c1(%rip)        # 2053dc <vlevel>
    1b18:	00 00 00 
    1b1b:	39 3d c3 38 20 00    	cmp    %edi,0x2038c3(%rip)        # 2053e4 <cookie>
    1b21:	74 2a                	je     1b4d <touch2+0x42>
    1b23:	48 8d 35 76 1b 00 00 	lea    0x1b76(%rip),%rsi        # 36a0 <_IO_stdin_used+0x3e0>
    1b2a:	bf 01 00 00 00       	mov    $0x1,%edi
    1b2f:	b8 00 00 00 00       	mov    $0x0,%eax
    1b34:	e8 af f4 ff ff       	callq  fe8 <_init+0xe8>
    1b39:	bf 02 00 00 00       	mov    $0x2,%edi
    1b3e:	e8 8d 06 00 00       	callq  21d0 <fail>
    1b43:	bf 00 00 00 00       	mov    $0x0,%edi
    1b48:	e8 c3 f4 ff ff       	callq  1010 <_init+0x110>
    1b4d:	48 8d 35 24 1b 00 00 	lea    0x1b24(%rip),%rsi        # 3678 <_IO_stdin_used+0x3b8>
    1b54:	bf 01 00 00 00       	mov    $0x1,%edi
    1b59:	b8 00 00 00 00       	mov    $0x0,%eax
    1b5e:	e8 85 f4 ff ff       	callq  fe8 <_init+0xe8>
    1b63:	bf 02 00 00 00       	mov    $0x2,%edi
    1b68:	e8 93 05 00 00       	callq  2100 <validate>
    1b6d:	eb d4                	jmp    1b43 <touch2+0x38>

0000000000001b6f <hexmatch>:
    1b6f:	41 54                	push   %r12
    1b71:	55                   	push   %rbp
    1b72:	53                   	push   %rbx
    1b73:	48 83 c4 80          	add    $0xffffffffffffff80,%rsp
    1b77:	89 fd                	mov    %edi,%ebp
    1b79:	48 89 f3             	mov    %rsi,%rbx
    1b7c:	64 48 8b 04 25 28 00 	mov    %fs:0x28,%rax
    1b83:	00 00 
    1b85:	48 89 44 24 78       	mov    %rax,0x78(%rsp)
    1b8a:	31 c0                	xor    %eax,%eax
    1b8c:	e8 37 f4 ff ff       	callq  fc8 <_init+0xc8>
    1b91:	48 89 c1             	mov    %rax,%rcx
    1b94:	48 ba 0b d7 a3 70 3d 	movabs $0xa3d70a3d70a3d70b,%rdx
    1b9b:	0a d7 a3 
    1b9e:	48 f7 ea             	imul   %rdx
    1ba1:	48 01 ca             	add    %rcx,%rdx
    1ba4:	48 c1 fa 06          	sar    $0x6,%rdx
    1ba8:	48 89 c8             	mov    %rcx,%rax
    1bab:	48 c1 f8 3f          	sar    $0x3f,%rax
    1baf:	48 29 c2             	sub    %rax,%rdx
    1bb2:	48 8d 04 92          	lea    (%rdx,%rdx,4),%rax
    1bb6:	48 8d 14 80          	lea    (%rax,%rax,4),%rdx
    1bba:	48 8d 04 95 00 00 00 	lea    0x0(,%rdx,4),%rax
    1bc1:	00 
    1bc2:	48 29 c1             	sub    %rax,%rcx
    1bc5:	4c 8d 24 0c          	lea    (%rsp,%rcx,1),%r12
    1bc9:	41 89 e8             	mov    %ebp,%r8d
    1bcc:	48 8d 0d a0 1a 00 00 	lea    0x1aa0(%rip),%rcx        # 3673 <_IO_stdin_used+0x3b3>
    1bd3:	48 c7 c2 ff ff ff ff 	mov    $0xffffffffffffffff,%rdx
    1bda:	be 01 00 00 00       	mov    $0x1,%esi
    1bdf:	4c 89 e7             	mov    %r12,%rdi
    1be2:	b8 00 00 00 00       	mov    $0x0,%eax
    1be7:	e8 44 f4 ff ff       	callq  1030 <_init+0x130>
    1bec:	ba 09 00 00 00       	mov    $0x9,%edx
    1bf1:	4c 89 e6             	mov    %r12,%rsi
    1bf4:	48 89 df             	mov    %rbx,%rdi
    1bf7:	e8 4c f3 ff ff       	callq  f48 <_init+0x48>
    1bfc:	85 c0                	test   %eax,%eax
    1bfe:	0f 94 c0             	sete   %al
    1c01:	48 8b 5c 24 78       	mov    0x78(%rsp),%rbx
    1c06:	64 48 33 1c 25 28 00 	xor    %fs:0x28,%rbx
    1c0d:	00 00 
    1c0f:	75 0c                	jne    1c1d <hexmatch+0xae>
    1c11:	0f b6 c0             	movzbl %al,%eax
    1c14:	48 83 ec 80          	sub    $0xffffffffffffff80,%rsp
    1c18:	5b                   	pop    %rbx
    1c19:	5d                   	pop    %rbp
    1c1a:	41 5c                	pop    %r12
    1c1c:	c3                   	retq   
    1c1d:	e8 46 f3 ff ff       	callq  f68 <_init+0x68>

0000000000001c22 <touch3>:
    1c22:	53                   	push   %rbx
    1c23:	48 89 fb             	mov    %rdi,%rbx
    1c26:	c7 05 ac 37 20 00 03 	movl   $0x3,0x2037ac(%rip)        # 2053dc <vlevel>
    1c2d:	00 00 00 
    1c30:	48 89 fe             	mov    %rdi,%rsi
    1c33:	8b 3d ab 37 20 00    	mov    0x2037ab(%rip),%edi        # 2053e4 <cookie>
    1c39:	e8 31 ff ff ff       	callq  1b6f <hexmatch>
    1c3e:	85 c0                	test   %eax,%eax
    1c40:	74 2d                	je     1c6f <touch3+0x4d>
    1c42:	48 89 da             	mov    %rbx,%rdx
    1c45:	48 8d 35 7c 1a 00 00 	lea    0x1a7c(%rip),%rsi        # 36c8 <_IO_stdin_used+0x408>
    1c4c:	bf 01 00 00 00       	mov    $0x1,%edi
    1c51:	b8 00 00 00 00       	mov    $0x0,%eax
    1c56:	e8 8d f3 ff ff       	callq  fe8 <_init+0xe8>
    1c5b:	bf 03 00 00 00       	mov    $0x3,%edi
    1c60:	e8 9b 04 00 00       	callq  2100 <validate>
    1c65:	bf 00 00 00 00       	mov    $0x0,%edi
    1c6a:	e8 a1 f3 ff ff       	callq  1010 <_init+0x110>
    1c6f:	48 89 da             	mov    %rbx,%rdx
    1c72:	48 8d 35 77 1a 00 00 	lea    0x1a77(%rip),%rsi        # 36f0 <_IO_stdin_used+0x430>
    1c79:	bf 01 00 00 00       	mov    $0x1,%edi
    1c7e:	b8 00 00 00 00       	mov    $0x0,%eax
    1c83:	e8 60 f3 ff ff       	callq  fe8 <_init+0xe8>
    1c88:	bf 03 00 00 00       	mov    $0x3,%edi
    1c8d:	e8 3e 05 00 00       	callq  21d0 <fail>
    1c92:	eb d1                	jmp    1c65 <touch3+0x43>

0000000000001c94 <test>:
    1c94:	48 83 ec 08          	sub    $0x8,%rsp
    1c98:	b8 00 00 00 00       	mov    $0x0,%eax
    1c9d:	e8 25 fe ff ff       	callq  1ac7 <getbuf>
    1ca2:	89 c2                	mov    %eax,%edx
    1ca4:	48 8d 35 6d 1a 00 00 	lea    0x1a6d(%rip),%rsi        # 3718 <_IO_stdin_used+0x458>
    1cab:	bf 01 00 00 00       	mov    $0x1,%edi
    1cb0:	b8 00 00 00 00       	mov    $0x0,%eax
    1cb5:	e8 2e f3 ff ff       	callq  fe8 <_init+0xe8>
    1cba:	48 83 c4 08          	add    $0x8,%rsp
    1cbe:	c3                   	retq   

0000000000001cbf <start_farm>:
    1cbf:	b8 01 00 00 00       	mov    $0x1,%eax
    1cc4:	c3                   	retq   

0000000000001cc5 <setval_301>:
    1cc5:	c7 07 6f e1 58 90    	movl   $0x9058e16f,(%rdi)
    1ccb:	c3                   	retq   

0000000000001ccc <addval_130>:
    1ccc:	8d 87 48 89 c7 c3    	lea    -0x3c3876b8(%rdi),%eax
    1cd2:	c3                   	retq   

0000000000001cd3 <addval_276>:
    1cd3:	8d 87 cf 58 92 90    	lea    -0x6f6da731(%rdi),%eax
    1cd9:	c3                   	retq   

0000000000001cda <addval_336>:
    1cda:	8d 87 58 c3 61 a6    	lea    -0x599e3ca8(%rdi),%eax
    1ce0:	c3                   	retq   

0000000000001ce1 <addval_215>:
    1ce1:	8d 87 58 94 90 90    	lea    -0x6f6f6ba8(%rdi),%eax
    1ce7:	c3                   	retq   

0000000000001ce8 <setval_135>:
    1ce8:	c7 07 48 89 c7 c3    	movl   $0xc3c78948,(%rdi)
    1cee:	c3                   	retq   

0000000000001cef <getval_199>:
    1cef:	b8 48 89 c7 c1       	mov    $0xc1c78948,%eax
    1cf4:	c3                   	retq   

0000000000001cf5 <addval_122>:
    1cf5:	8d 87 48 8b c7 c3    	lea    -0x3c3874b8(%rdi),%eax
    1cfb:	c3                   	retq   

0000000000001cfc <mid_farm>:
    1cfc:	b8 01 00 00 00       	mov    $0x1,%eax
    1d01:	c3                   	retq   

0000000000001d02 <add_xy>:
    1d02:	48 8d 04 37          	lea    (%rdi,%rsi,1),%rax
    1d06:	c3                   	retq   

0000000000001d07 <setval_216>:
    1d07:	c7 07 89 d6 90 90    	movl   $0x9090d689,(%rdi)
    1d0d:	c3                   	retq   

0000000000001d0e <setval_476>:
    1d0e:	c7 07 c8 89 e0 c3    	movl   $0xc3e089c8,(%rdi)
    1d14:	c3                   	retq   

0000000000001d15 <setval_417>:
    1d15:	c7 07 88 c1 38 db    	movl   $0xdb38c188,(%rdi)
    1d1b:	c3                   	retq   

0000000000001d1c <addval_136>:
    1d1c:	8d 87 89 d6 90 c7    	lea    -0x386f2977(%rdi),%eax
    1d22:	c3                   	retq   

0000000000001d23 <addval_105>:
    1d23:	8d 87 89 c1 60 c9    	lea    -0x369f3e77(%rdi),%eax
    1d29:	c3                   	retq   

0000000000001d2a <addval_200>:
    1d2a:	8d 87 09 3b 89 ca    	lea    -0x3576c4f7(%rdi),%eax
    1d30:	c3                   	retq   

0000000000001d31 <addval_465>:
    1d31:	8d 87 c9 c1 38 d2    	lea    -0x2dc73e37(%rdi),%eax
    1d37:	c3                   	retq   

0000000000001d38 <addval_212>:
    1d38:	8d 87 50 89 c1 90    	lea    -0x6f3e76b0(%rdi),%eax
    1d3e:	c3                   	retq   

0000000000001d3f <getval_355>:
    1d3f:	b8 4a 89 e0 90       	mov    $0x90e0894a,%eax
    1d44:	c3                   	retq   

0000000000001d45 <setval_368>:
    1d45:	c7 07 48 89 e0 91    	movl   $0x91e08948,(%rdi)
    1d4b:	c3                   	retq   

0000000000001d4c <addval_228>:
    1d4c:	8d 87 89 d6 00 c9    	lea    -0x36ff2977(%rdi),%eax
    1d52:	c3                   	retq   

0000000000001d53 <setval_151>:
    1d53:	c7 07 48 89 e0 c3    	movl   $0xc3e08948,(%rdi)
    1d59:	c3                   	retq   

0000000000001d5a <setval_169>:
    1d5a:	c7 07 89 ca 84 db    	movl   $0xdb84ca89,(%rdi)
    1d60:	c3                   	retq   

0000000000001d61 <addval_443>:
    1d61:	8d 87 89 d6 28 db    	lea    -0x24d72977(%rdi),%eax
    1d67:	c3                   	retq   

0000000000001d68 <addval_398>:
    1d68:	8d 87 89 d6 a4 db    	lea    -0x245b2977(%rdi),%eax
    1d6e:	c3                   	retq   

0000000000001d6f <setval_119>:
    1d6f:	c7 07 33 3a 89 c1    	movl   $0xc1893a33,(%rdi)
    1d75:	c3                   	retq   

0000000000001d76 <getval_394>:
    1d76:	b8 8b 89 c1 94       	mov    $0x94c1898b,%eax
    1d7b:	c3                   	retq   

0000000000001d7c <addval_450>:
    1d7c:	8d 87 48 81 e0 90    	lea    -0x6f1f7eb8(%rdi),%eax
    1d82:	c3                   	retq   

0000000000001d83 <addval_159>:
    1d83:	8d 87 89 ca 60 d2    	lea    -0x2d9f3577(%rdi),%eax
    1d89:	c3                   	retq   

0000000000001d8a <setval_436>:
    1d8a:	c7 07 48 89 e0 90    	movl   $0x90e08948,(%rdi)
    1d90:	c3                   	retq   

0000000000001d91 <addval_315>:
    1d91:	8d 87 68 89 e0 c3    	lea    -0x3c1f7698(%rdi),%eax
    1d97:	c3                   	retq   

0000000000001d98 <setval_180>:
    1d98:	c7 07 89 c1 90 c7    	movl   $0xc790c189,(%rdi)
    1d9e:	c3                   	retq   

0000000000001d9f <addval_295>:
    1d9f:	8d 87 c9 ca 90 90    	lea    -0x6f6f3537(%rdi),%eax
    1da5:	c3                   	retq   

0000000000001da6 <getval_272>:
    1da6:	b8 89 d6 48 c0       	mov    $0xc048d689,%eax
    1dab:	c3                   	retq   

0000000000001dac <addval_284>:
    1dac:	8d 87 89 c1 91 90    	lea    -0x6f6e3e77(%rdi),%eax
    1db2:	c3                   	retq   

0000000000001db3 <setval_290>:
    1db3:	c7 07 af dc 8b ca    	movl   $0xca8bdcaf,(%rdi)
    1db9:	c3                   	retq   

0000000000001dba <addval_325>:
    1dba:	8d 87 40 89 e0 c3    	lea    -0x3c1f76c0(%rdi),%eax
    1dc0:	c3                   	retq   

0000000000001dc1 <setval_236>:
    1dc1:	c7 07 89 d6 38 c0    	movl   $0xc038d689,(%rdi)
    1dc7:	c3                   	retq   

0000000000001dc8 <getval_116>:
    1dc8:	b8 89 d6 18 d2       	mov    $0xd218d689,%eax
    1dcd:	c3                   	retq   

0000000000001dce <addval_474>:
    1dce:	8d 87 8b ca 38 db    	lea    -0x24c73575(%rdi),%eax
    1dd4:	c3                   	retq   

0000000000001dd5 <getval_249>:
    1dd5:	b8 81 ca 90 c3       	mov    $0xc390ca81,%eax
    1dda:	c3                   	retq   

0000000000001ddb <addval_285>:
    1ddb:	8d 87 89 ca 78 d2    	lea    -0x2d873577(%rdi),%eax
    1de1:	c3                   	retq   

0000000000001de2 <end_farm>:
    1de2:	b8 01 00 00 00       	mov    $0x1,%eax
    1de7:	c3                   	retq   

0000000000001de8 <save_char>:
    1de8:	8b 05 16 42 20 00    	mov    0x204216(%rip),%eax        # 206004 <gets_cnt>
    1dee:	3d ff 03 00 00       	cmp    $0x3ff,%eax
    1df3:	7f 4a                	jg     1e3f <save_char+0x57>
    1df5:	8d 14 40             	lea    (%rax,%rax,2),%edx
    1df8:	89 f9                	mov    %edi,%ecx
    1dfa:	c0 e9 04             	shr    $0x4,%cl
    1dfd:	4c 8d 05 3c 1c 00 00 	lea    0x1c3c(%rip),%r8        # 3a40 <trans_char>
    1e04:	83 e1 0f             	and    $0xf,%ecx
    1e07:	45 0f b6 0c 08       	movzbl (%r8,%rcx,1),%r9d
    1e0c:	48 8d 0d ed 35 20 00 	lea    0x2035ed(%rip),%rcx        # 205400 <gets_buf>
    1e13:	48 63 f2             	movslq %edx,%rsi
    1e16:	44 88 0c 31          	mov    %r9b,(%rcx,%rsi,1)
    1e1a:	8d 72 01             	lea    0x1(%rdx),%esi
    1e1d:	83 e7 0f             	and    $0xf,%edi
    1e20:	41 0f b6 3c 38       	movzbl (%r8,%rdi,1),%edi
    1e25:	48 63 f6             	movslq %esi,%rsi
    1e28:	40 88 3c 31          	mov    %dil,(%rcx,%rsi,1)
    1e2c:	83 c2 02             	add    $0x2,%edx
    1e2f:	48 63 d2             	movslq %edx,%rdx
    1e32:	c6 04 11 20          	movb   $0x20,(%rcx,%rdx,1)
    1e36:	83 c0 01             	add    $0x1,%eax
    1e39:	89 05 c5 41 20 00    	mov    %eax,0x2041c5(%rip)        # 206004 <gets_cnt>
    1e3f:	f3 c3                	repz retq 

0000000000001e41 <save_term>:
    1e41:	8b 05 bd 41 20 00    	mov    0x2041bd(%rip),%eax        # 206004 <gets_cnt>
    1e47:	8d 04 40             	lea    (%rax,%rax,2),%eax
    1e4a:	48 98                	cltq   
    1e4c:	48 8d 15 ad 35 20 00 	lea    0x2035ad(%rip),%rdx        # 205400 <gets_buf>
    1e53:	c6 04 02 00          	movb   $0x0,(%rdx,%rax,1)
    1e57:	c3                   	retq   

0000000000001e58 <check_fail>:
    1e58:	48 83 ec 08          	sub    $0x8,%rsp
    1e5c:	0f be 15 a5 41 20 00 	movsbl 0x2041a5(%rip),%edx        # 206008 <target_prefix>
    1e63:	4c 8d 05 96 35 20 00 	lea    0x203596(%rip),%r8        # 205400 <gets_buf>
    1e6a:	8b 0d 68 35 20 00    	mov    0x203568(%rip),%ecx        # 2053d8 <check_level>
    1e70:	48 8d 35 c4 18 00 00 	lea    0x18c4(%rip),%rsi        # 373b <_IO_stdin_used+0x47b>
    1e77:	bf 01 00 00 00       	mov    $0x1,%edi
    1e7c:	b8 00 00 00 00       	mov    $0x0,%eax
    1e81:	e8 62 f1 ff ff       	callq  fe8 <_init+0xe8>
    1e86:	bf 01 00 00 00       	mov    $0x1,%edi
    1e8b:	e8 80 f1 ff ff       	callq  1010 <_init+0x110>

0000000000001e90 <Gets>:
    1e90:	41 54                	push   %r12
    1e92:	55                   	push   %rbp
    1e93:	53                   	push   %rbx
    1e94:	49 89 fc             	mov    %rdi,%r12
    1e97:	c7 05 63 41 20 00 00 	movl   $0x0,0x204163(%rip)        # 206004 <gets_cnt>
    1e9e:	00 00 00 
    1ea1:	48 89 fb             	mov    %rdi,%rbx
    1ea4:	eb 11                	jmp    1eb7 <Gets+0x27>
    1ea6:	48 8d 6b 01          	lea    0x1(%rbx),%rbp
    1eaa:	88 03                	mov    %al,(%rbx)
    1eac:	0f b6 f8             	movzbl %al,%edi
    1eaf:	e8 34 ff ff ff       	callq  1de8 <save_char>
    1eb4:	48 89 eb             	mov    %rbp,%rbx
    1eb7:	48 8b 3d 12 35 20 00 	mov    0x203512(%rip),%rdi        # 2053d0 <infile>
    1ebe:	e8 0d f1 ff ff       	callq  fd0 <_init+0xd0>
    1ec3:	83 f8 ff             	cmp    $0xffffffff,%eax
    1ec6:	74 05                	je     1ecd <Gets+0x3d>
    1ec8:	83 f8 0a             	cmp    $0xa,%eax
    1ecb:	75 d9                	jne    1ea6 <Gets+0x16>
    1ecd:	c6 03 00             	movb   $0x0,(%rbx)
    1ed0:	b8 00 00 00 00       	mov    $0x0,%eax
    1ed5:	e8 67 ff ff ff       	callq  1e41 <save_term>
    1eda:	4c 89 e0             	mov    %r12,%rax
    1edd:	5b                   	pop    %rbx
    1ede:	5d                   	pop    %rbp
    1edf:	41 5c                	pop    %r12
    1ee1:	c3                   	retq   

0000000000001ee2 <notify_server>:
    1ee2:	55                   	push   %rbp
    1ee3:	53                   	push   %rbx
    1ee4:	48 81 ec 18 40 00 00 	sub    $0x4018,%rsp
    1eeb:	64 48 8b 04 25 28 00 	mov    %fs:0x28,%rax
    1ef2:	00 00 
    1ef4:	48 89 84 24 08 40 00 	mov    %rax,0x4008(%rsp)
    1efb:	00 
    1efc:	31 c0                	xor    %eax,%eax
    1efe:	83 3d e3 34 20 00 00 	cmpl   $0x0,0x2034e3(%rip)        # 2053e8 <is_checker>
    1f05:	0f 85 d2 00 00 00    	jne    1fdd <notify_server+0xfb>
    1f0b:	89 fb                	mov    %edi,%ebx
    1f0d:	8b 05 f1 40 20 00    	mov    0x2040f1(%rip),%eax        # 206004 <gets_cnt>
    1f13:	83 c0 64             	add    $0x64,%eax
    1f16:	3d 00 20 00 00       	cmp    $0x2000,%eax
    1f1b:	0f 8f dd 00 00 00    	jg     1ffe <notify_server+0x11c>
    1f21:	0f be 05 e0 40 20 00 	movsbl 0x2040e0(%rip),%eax        # 206008 <target_prefix>
    1f28:	83 3d 39 34 20 00 00 	cmpl   $0x0,0x203439(%rip)        # 205368 <notify>
    1f2f:	0f 84 e9 00 00 00    	je     201e <notify_server+0x13c>
    1f35:	8b 15 a5 34 20 00    	mov    0x2034a5(%rip),%edx        # 2053e0 <authkey>
    1f3b:	85 db                	test   %ebx,%ebx
    1f3d:	0f 84 e5 00 00 00    	je     2028 <notify_server+0x146>
    1f43:	48 8d 2d 07 18 00 00 	lea    0x1807(%rip),%rbp        # 3751 <_IO_stdin_used+0x491>
    1f4a:	48 89 e7             	mov    %rsp,%rdi
    1f4d:	48 8d 0d ac 34 20 00 	lea    0x2034ac(%rip),%rcx        # 205400 <gets_buf>
    1f54:	51                   	push   %rcx
    1f55:	56                   	push   %rsi
    1f56:	50                   	push   %rax
    1f57:	52                   	push   %rdx
    1f58:	49 89 e9             	mov    %rbp,%r9
    1f5b:	44 8b 05 ae 30 20 00 	mov    0x2030ae(%rip),%r8d        # 205010 <target_id>
    1f62:	48 8d 0d f2 17 00 00 	lea    0x17f2(%rip),%rcx        # 375b <_IO_stdin_used+0x49b>
    1f69:	ba 00 20 00 00       	mov    $0x2000,%edx
    1f6e:	be 01 00 00 00       	mov    $0x1,%esi
    1f73:	b8 00 00 00 00       	mov    $0x0,%eax
    1f78:	e8 b3 f0 ff ff       	callq  1030 <_init+0x130>
    1f7d:	48 83 c4 20          	add    $0x20,%rsp
    1f81:	83 3d e0 33 20 00 00 	cmpl   $0x0,0x2033e0(%rip)        # 205368 <notify>
    1f88:	0f 84 df 00 00 00    	je     206d <notify_server+0x18b>
    1f8e:	85 db                	test   %ebx,%ebx
    1f90:	0f 84 c6 00 00 00    	je     205c <notify_server+0x17a>
    1f96:	48 89 e1             	mov    %rsp,%rcx
    1f99:	4c 8d 8c 24 00 20 00 	lea    0x2000(%rsp),%r9
    1fa0:	00 
    1fa1:	41 b8 00 00 00 00    	mov    $0x0,%r8d
    1fa7:	48 8b 15 7a 30 20 00 	mov    0x20307a(%rip),%rdx        # 205028 <lab>
    1fae:	48 8b 35 7b 30 20 00 	mov    0x20307b(%rip),%rsi        # 205030 <course>
    1fb5:	48 8b 3d 64 30 20 00 	mov    0x203064(%rip),%rdi        # 205020 <user_id>
    1fbc:	e8 b4 11 00 00       	callq  3175 <driver_post>
    1fc1:	85 c0                	test   %eax,%eax
    1fc3:	78 6f                	js     2034 <notify_server+0x152>
    1fc5:	48 8d 3d d4 18 00 00 	lea    0x18d4(%rip),%rdi        # 38a0 <_IO_stdin_used+0x5e0>
    1fcc:	e8 87 ef ff ff       	callq  f58 <_init+0x58>
    1fd1:	48 8d 3d ab 17 00 00 	lea    0x17ab(%rip),%rdi        # 3783 <_IO_stdin_used+0x4c3>
    1fd8:	e8 7b ef ff ff       	callq  f58 <_init+0x58>
    1fdd:	48 8b 84 24 08 40 00 	mov    0x4008(%rsp),%rax
    1fe4:	00 
    1fe5:	64 48 33 04 25 28 00 	xor    %fs:0x28,%rax
    1fec:	00 00 
    1fee:	0f 85 07 01 00 00    	jne    20fb <notify_server+0x219>
    1ff4:	48 81 c4 18 40 00 00 	add    $0x4018,%rsp
    1ffb:	5b                   	pop    %rbx
    1ffc:	5d                   	pop    %rbp
    1ffd:	c3                   	retq   
    1ffe:	48 8d 35 6b 18 00 00 	lea    0x186b(%rip),%rsi        # 3870 <_IO_stdin_used+0x5b0>
    2005:	bf 01 00 00 00       	mov    $0x1,%edi
    200a:	b8 00 00 00 00       	mov    $0x0,%eax
    200f:	e8 d4 ef ff ff       	callq  fe8 <_init+0xe8>
    2014:	bf 01 00 00 00       	mov    $0x1,%edi
    2019:	e8 f2 ef ff ff       	callq  1010 <_init+0x110>
    201e:	ba ff ff ff ff       	mov    $0xffffffff,%edx
    2023:	e9 13 ff ff ff       	jmpq   1f3b <notify_server+0x59>
    2028:	48 8d 2d 27 17 00 00 	lea    0x1727(%rip),%rbp        # 3756 <_IO_stdin_used+0x496>
    202f:	e9 16 ff ff ff       	jmpq   1f4a <notify_server+0x68>
    2034:	48 8d 94 24 00 20 00 	lea    0x2000(%rsp),%rdx
    203b:	00 
    203c:	48 8d 35 34 17 00 00 	lea    0x1734(%rip),%rsi        # 3777 <_IO_stdin_used+0x4b7>
    2043:	bf 01 00 00 00       	mov    $0x1,%edi
    2048:	b8 00 00 00 00       	mov    $0x0,%eax
    204d:	e8 96 ef ff ff       	callq  fe8 <_init+0xe8>
    2052:	bf 01 00 00 00       	mov    $0x1,%edi
    2057:	e8 b4 ef ff ff       	callq  1010 <_init+0x110>
    205c:	48 8d 3d 2a 17 00 00 	lea    0x172a(%rip),%rdi        # 378d <_IO_stdin_used+0x4cd>
    2063:	e8 f0 ee ff ff       	callq  f58 <_init+0x58>
    2068:	e9 70 ff ff ff       	jmpq   1fdd <notify_server+0xfb>
    206d:	48 89 ea             	mov    %rbp,%rdx
    2070:	48 8d 35 61 18 00 00 	lea    0x1861(%rip),%rsi        # 38d8 <_IO_stdin_used+0x618>
    2077:	bf 01 00 00 00       	mov    $0x1,%edi
    207c:	b8 00 00 00 00       	mov    $0x0,%eax
    2081:	e8 62 ef ff ff       	callq  fe8 <_init+0xe8>
    2086:	48 8b 15 93 2f 20 00 	mov    0x202f93(%rip),%rdx        # 205020 <user_id>
    208d:	48 8d 35 00 17 00 00 	lea    0x1700(%rip),%rsi        # 3794 <_IO_stdin_used+0x4d4>
    2094:	bf 01 00 00 00       	mov    $0x1,%edi
    2099:	b8 00 00 00 00       	mov    $0x0,%eax
    209e:	e8 45 ef ff ff       	callq  fe8 <_init+0xe8>
    20a3:	48 8b 15 86 2f 20 00 	mov    0x202f86(%rip),%rdx        # 205030 <course>
    20aa:	48 8d 35 f0 16 00 00 	lea    0x16f0(%rip),%rsi        # 37a1 <_IO_stdin_used+0x4e1>
    20b1:	bf 01 00 00 00       	mov    $0x1,%edi
    20b6:	b8 00 00 00 00       	mov    $0x0,%eax
    20bb:	e8 28 ef ff ff       	callq  fe8 <_init+0xe8>
    20c0:	48 8b 15 61 2f 20 00 	mov    0x202f61(%rip),%rdx        # 205028 <lab>
    20c7:	48 8d 35 df 16 00 00 	lea    0x16df(%rip),%rsi        # 37ad <_IO_stdin_used+0x4ed>
    20ce:	bf 01 00 00 00       	mov    $0x1,%edi
    20d3:	b8 00 00 00 00       	mov    $0x0,%eax
    20d8:	e8 0b ef ff ff       	callq  fe8 <_init+0xe8>
    20dd:	48 89 e2             	mov    %rsp,%rdx
    20e0:	48 8d 35 cf 16 00 00 	lea    0x16cf(%rip),%rsi        # 37b6 <_IO_stdin_used+0x4f6>
    20e7:	bf 01 00 00 00       	mov    $0x1,%edi
    20ec:	b8 00 00 00 00       	mov    $0x0,%eax
    20f1:	e8 f2 ee ff ff       	callq  fe8 <_init+0xe8>
    20f6:	e9 e2 fe ff ff       	jmpq   1fdd <notify_server+0xfb>
    20fb:	e8 68 ee ff ff       	callq  f68 <_init+0x68>

0000000000002100 <validate>:
    2100:	53                   	push   %rbx
    2101:	89 fb                	mov    %edi,%ebx
    2103:	83 3d de 32 20 00 00 	cmpl   $0x0,0x2032de(%rip)        # 2053e8 <is_checker>
    210a:	74 72                	je     217e <validate+0x7e>
    210c:	39 3d ca 32 20 00    	cmp    %edi,0x2032ca(%rip)        # 2053dc <vlevel>
    2112:	75 32                	jne    2146 <validate+0x46>
    2114:	8b 15 be 32 20 00    	mov    0x2032be(%rip),%edx        # 2053d8 <check_level>
    211a:	39 d7                	cmp    %edx,%edi
    211c:	75 3e                	jne    215c <validate+0x5c>
    211e:	0f be 15 e3 3e 20 00 	movsbl 0x203ee3(%rip),%edx        # 206008 <target_prefix>
    2125:	4c 8d 05 d4 32 20 00 	lea    0x2032d4(%rip),%r8        # 205400 <gets_buf>
    212c:	89 f9                	mov    %edi,%ecx
    212e:	48 8d 35 ab 16 00 00 	lea    0x16ab(%rip),%rsi        # 37e0 <_IO_stdin_used+0x520>
    2135:	bf 01 00 00 00       	mov    $0x1,%edi
    213a:	b8 00 00 00 00       	mov    $0x0,%eax
    213f:	e8 a4 ee ff ff       	callq  fe8 <_init+0xe8>
    2144:	5b                   	pop    %rbx
    2145:	c3                   	retq   
    2146:	48 8d 3d 75 16 00 00 	lea    0x1675(%rip),%rdi        # 37c2 <_IO_stdin_used+0x502>
    214d:	e8 06 ee ff ff       	callq  f58 <_init+0x58>
    2152:	b8 00 00 00 00       	mov    $0x0,%eax
    2157:	e8 fc fc ff ff       	callq  1e58 <check_fail>
    215c:	89 f9                	mov    %edi,%ecx
    215e:	48 8d 35 9b 17 00 00 	lea    0x179b(%rip),%rsi        # 3900 <_IO_stdin_used+0x640>
    2165:	bf 01 00 00 00       	mov    $0x1,%edi
    216a:	b8 00 00 00 00       	mov    $0x0,%eax
    216f:	e8 74 ee ff ff       	callq  fe8 <_init+0xe8>
    2174:	b8 00 00 00 00       	mov    $0x0,%eax
    2179:	e8 da fc ff ff       	callq  1e58 <check_fail>
    217e:	3b 3d 58 32 20 00    	cmp    0x203258(%rip),%edi        # 2053dc <vlevel>
    2184:	74 1a                	je     21a0 <validate+0xa0>
    2186:	48 8d 3d 35 16 00 00 	lea    0x1635(%rip),%rdi        # 37c2 <_IO_stdin_used+0x502>
    218d:	e8 c6 ed ff ff       	callq  f58 <_init+0x58>
    2192:	89 de                	mov    %ebx,%esi
    2194:	bf 00 00 00 00       	mov    $0x0,%edi
    2199:	e8 44 fd ff ff       	callq  1ee2 <notify_server>
    219e:	eb a4                	jmp    2144 <validate+0x44>
    21a0:	0f be 0d 61 3e 20 00 	movsbl 0x203e61(%rip),%ecx        # 206008 <target_prefix>
    21a7:	89 fa                	mov    %edi,%edx
    21a9:	48 8d 35 78 17 00 00 	lea    0x1778(%rip),%rsi        # 3928 <_IO_stdin_used+0x668>
    21b0:	bf 01 00 00 00       	mov    $0x1,%edi
    21b5:	b8 00 00 00 00       	mov    $0x0,%eax
    21ba:	e8 29 ee ff ff       	callq  fe8 <_init+0xe8>
    21bf:	89 de                	mov    %ebx,%esi
    21c1:	bf 01 00 00 00       	mov    $0x1,%edi
    21c6:	e8 17 fd ff ff       	callq  1ee2 <notify_server>
    21cb:	e9 74 ff ff ff       	jmpq   2144 <validate+0x44>

00000000000021d0 <fail>:
    21d0:	48 83 ec 08          	sub    $0x8,%rsp
    21d4:	83 3d 0d 32 20 00 00 	cmpl   $0x0,0x20320d(%rip)        # 2053e8 <is_checker>
    21db:	75 11                	jne    21ee <fail+0x1e>
    21dd:	89 fe                	mov    %edi,%esi
    21df:	bf 00 00 00 00       	mov    $0x0,%edi
    21e4:	e8 f9 fc ff ff       	callq  1ee2 <notify_server>
    21e9:	48 83 c4 08          	add    $0x8,%rsp
    21ed:	c3                   	retq   
    21ee:	b8 00 00 00 00       	mov    $0x0,%eax
    21f3:	e8 60 fc ff ff       	callq  1e58 <check_fail>

00000000000021f8 <bushandler>:
    21f8:	48 83 ec 08          	sub    $0x8,%rsp
    21fc:	83 3d e5 31 20 00 00 	cmpl   $0x0,0x2031e5(%rip)        # 2053e8 <is_checker>
    2203:	74 16                	je     221b <bushandler+0x23>
    2205:	48 8d 3d e9 15 00 00 	lea    0x15e9(%rip),%rdi        # 37f5 <_IO_stdin_used+0x535>
    220c:	e8 47 ed ff ff       	callq  f58 <_init+0x58>
    2211:	b8 00 00 00 00       	mov    $0x0,%eax
    2216:	e8 3d fc ff ff       	callq  1e58 <check_fail>
    221b:	48 8d 3d 3e 17 00 00 	lea    0x173e(%rip),%rdi        # 3960 <_IO_stdin_used+0x6a0>
    2222:	e8 31 ed ff ff       	callq  f58 <_init+0x58>
    2227:	48 8d 3d d1 15 00 00 	lea    0x15d1(%rip),%rdi        # 37ff <_IO_stdin_used+0x53f>
    222e:	e8 25 ed ff ff       	callq  f58 <_init+0x58>
    2233:	be 00 00 00 00       	mov    $0x0,%esi
    2238:	bf 00 00 00 00       	mov    $0x0,%edi
    223d:	e8 a0 fc ff ff       	callq  1ee2 <notify_server>
    2242:	bf 01 00 00 00       	mov    $0x1,%edi
    2247:	e8 c4 ed ff ff       	callq  1010 <_init+0x110>

000000000000224c <seghandler>:
    224c:	48 83 ec 08          	sub    $0x8,%rsp
    2250:	83 3d 91 31 20 00 00 	cmpl   $0x0,0x203191(%rip)        # 2053e8 <is_checker>
    2257:	74 16                	je     226f <seghandler+0x23>
    2259:	48 8d 3d b5 15 00 00 	lea    0x15b5(%rip),%rdi        # 3815 <_IO_stdin_used+0x555>
    2260:	e8 f3 ec ff ff       	callq  f58 <_init+0x58>
    2265:	b8 00 00 00 00       	mov    $0x0,%eax
    226a:	e8 e9 fb ff ff       	callq  1e58 <check_fail>
    226f:	48 8d 3d 0a 17 00 00 	lea    0x170a(%rip),%rdi        # 3980 <_IO_stdin_used+0x6c0>
    2276:	e8 dd ec ff ff       	callq  f58 <_init+0x58>
    227b:	48 8d 3d 7d 15 00 00 	lea    0x157d(%rip),%rdi        # 37ff <_IO_stdin_used+0x53f>
    2282:	e8 d1 ec ff ff       	callq  f58 <_init+0x58>
    2287:	be 00 00 00 00       	mov    $0x0,%esi
    228c:	bf 00 00 00 00       	mov    $0x0,%edi
    2291:	e8 4c fc ff ff       	callq  1ee2 <notify_server>
    2296:	bf 01 00 00 00       	mov    $0x1,%edi
    229b:	e8 70 ed ff ff       	callq  1010 <_init+0x110>

00000000000022a0 <illegalhandler>:
    22a0:	48 83 ec 08          	sub    $0x8,%rsp
    22a4:	83 3d 3d 31 20 00 00 	cmpl   $0x0,0x20313d(%rip)        # 2053e8 <is_checker>
    22ab:	74 16                	je     22c3 <illegalhandler+0x23>
    22ad:	48 8d 3d 74 15 00 00 	lea    0x1574(%rip),%rdi        # 3828 <_IO_stdin_used+0x568>
    22b4:	e8 9f ec ff ff       	callq  f58 <_init+0x58>
    22b9:	b8 00 00 00 00       	mov    $0x0,%eax
    22be:	e8 95 fb ff ff       	callq  1e58 <check_fail>
    22c3:	48 8d 3d de 16 00 00 	lea    0x16de(%rip),%rdi        # 39a8 <_IO_stdin_used+0x6e8>
    22ca:	e8 89 ec ff ff       	callq  f58 <_init+0x58>
    22cf:	48 8d 3d 29 15 00 00 	lea    0x1529(%rip),%rdi        # 37ff <_IO_stdin_used+0x53f>
    22d6:	e8 7d ec ff ff       	callq  f58 <_init+0x58>
    22db:	be 00 00 00 00       	mov    $0x0,%esi
    22e0:	bf 00 00 00 00       	mov    $0x0,%edi
    22e5:	e8 f8 fb ff ff       	callq  1ee2 <notify_server>
    22ea:	bf 01 00 00 00       	mov    $0x1,%edi
    22ef:	e8 1c ed ff ff       	callq  1010 <_init+0x110>

00000000000022f4 <sigalrmhandler>:
    22f4:	48 83 ec 08          	sub    $0x8,%rsp
    22f8:	83 3d e9 30 20 00 00 	cmpl   $0x0,0x2030e9(%rip)        # 2053e8 <is_checker>
    22ff:	74 16                	je     2317 <sigalrmhandler+0x23>
    2301:	48 8d 3d 34 15 00 00 	lea    0x1534(%rip),%rdi        # 383c <_IO_stdin_used+0x57c>
    2308:	e8 4b ec ff ff       	callq  f58 <_init+0x58>
    230d:	b8 00 00 00 00       	mov    $0x0,%eax
    2312:	e8 41 fb ff ff       	callq  1e58 <check_fail>
    2317:	ba 05 00 00 00       	mov    $0x5,%edx
    231c:	48 8d 35 b5 16 00 00 	lea    0x16b5(%rip),%rsi        # 39d8 <_IO_stdin_used+0x718>
    2323:	bf 01 00 00 00       	mov    $0x1,%edi
    2328:	b8 00 00 00 00       	mov    $0x0,%eax
    232d:	e8 b6 ec ff ff       	callq  fe8 <_init+0xe8>
    2332:	be 00 00 00 00       	mov    $0x0,%esi
    2337:	bf 00 00 00 00       	mov    $0x0,%edi
    233c:	e8 a1 fb ff ff       	callq  1ee2 <notify_server>
    2341:	bf 01 00 00 00       	mov    $0x1,%edi
    2346:	e8 c5 ec ff ff       	callq  1010 <_init+0x110>

000000000000234b <launch>:
    234b:	55                   	push   %rbp
    234c:	48 89 e5             	mov    %rsp,%rbp
    234f:	48 83 ec 10          	sub    $0x10,%rsp
    2353:	48 89 fa             	mov    %rdi,%rdx
    2356:	64 48 8b 04 25 28 00 	mov    %fs:0x28,%rax
    235d:	00 00 
    235f:	48 89 45 f8          	mov    %rax,-0x8(%rbp)
    2363:	31 c0                	xor    %eax,%eax
    2365:	48 8d 47 1e          	lea    0x1e(%rdi),%rax
    2369:	48 83 e0 f0          	and    $0xfffffffffffffff0,%rax
    236d:	48 29 c4             	sub    %rax,%rsp
    2370:	48 8d 7c 24 0f       	lea    0xf(%rsp),%rdi
    2375:	48 83 e7 f0          	and    $0xfffffffffffffff0,%rdi
    2379:	be f4 00 00 00       	mov    $0xf4,%esi
    237e:	e8 f5 eb ff ff       	callq  f78 <_init+0x78>
    2383:	48 8b 05 f6 2f 20 00 	mov    0x202ff6(%rip),%rax        # 205380 <stdin@@GLIBC_2.2.5>
    238a:	48 39 05 3f 30 20 00 	cmp    %rax,0x20303f(%rip)        # 2053d0 <infile>
    2391:	74 3a                	je     23cd <launch+0x82>
    2393:	c7 05 3f 30 20 00 00 	movl   $0x0,0x20303f(%rip)        # 2053dc <vlevel>
    239a:	00 00 00 
    239d:	b8 00 00 00 00       	mov    $0x0,%eax
    23a2:	e8 ed f8 ff ff       	callq  1c94 <test>
    23a7:	83 3d 3a 30 20 00 00 	cmpl   $0x0,0x20303a(%rip)        # 2053e8 <is_checker>
    23ae:	75 35                	jne    23e5 <launch+0x9a>
    23b0:	48 8d 3d a5 14 00 00 	lea    0x14a5(%rip),%rdi        # 385c <_IO_stdin_used+0x59c>
    23b7:	e8 9c eb ff ff       	callq  f58 <_init+0x58>
    23bc:	48 8b 45 f8          	mov    -0x8(%rbp),%rax
    23c0:	64 48 33 04 25 28 00 	xor    %fs:0x28,%rax
    23c7:	00 00 
    23c9:	75 30                	jne    23fb <launch+0xb0>
    23cb:	c9                   	leaveq 
    23cc:	c3                   	retq   
    23cd:	48 8d 35 70 14 00 00 	lea    0x1470(%rip),%rsi        # 3844 <_IO_stdin_used+0x584>
    23d4:	bf 01 00 00 00       	mov    $0x1,%edi
    23d9:	b8 00 00 00 00       	mov    $0x0,%eax
    23de:	e8 05 ec ff ff       	callq  fe8 <_init+0xe8>
    23e3:	eb ae                	jmp    2393 <launch+0x48>
    23e5:	48 8d 3d 65 14 00 00 	lea    0x1465(%rip),%rdi        # 3851 <_IO_stdin_used+0x591>
    23ec:	e8 67 eb ff ff       	callq  f58 <_init+0x58>
    23f1:	b8 00 00 00 00       	mov    $0x0,%eax
    23f6:	e8 5d fa ff ff       	callq  1e58 <check_fail>
    23fb:	e8 68 eb ff ff       	callq  f68 <_init+0x68>

0000000000002400 <stable_launch>:
    2400:	53                   	push   %rbx
    2401:	48 89 3d c0 2f 20 00 	mov    %rdi,0x202fc0(%rip)        # 2053c8 <global_offset>
    2408:	41 b9 00 00 00 00    	mov    $0x0,%r9d
    240e:	41 b8 00 00 00 00    	mov    $0x0,%r8d
    2414:	b9 32 01 00 00       	mov    $0x132,%ecx
    2419:	ba 07 00 00 00       	mov    $0x7,%edx
    241e:	be 00 00 10 00       	mov    $0x100000,%esi
    2423:	bf 00 60 58 55       	mov    $0x55586000,%edi
    2428:	e8 43 eb ff ff       	callq  f70 <_init+0x70>
    242d:	48 89 c3             	mov    %rax,%rbx
    2430:	48 3d 00 60 58 55    	cmp    $0x55586000,%rax
    2436:	75 43                	jne    247b <stable_launch+0x7b>
    2438:	48 8d 90 f8 ff 0f 00 	lea    0xffff8(%rax),%rdx
    243f:	48 89 15 ca 3b 20 00 	mov    %rdx,0x203bca(%rip)        # 206010 <stack_top>
    2446:	48 89 e0             	mov    %rsp,%rax
    2449:	48 89 d4             	mov    %rdx,%rsp
    244c:	48 89 c2             	mov    %rax,%rdx
    244f:	48 89 15 6a 2f 20 00 	mov    %rdx,0x202f6a(%rip)        # 2053c0 <global_save_stack>
    2456:	48 8b 3d 6b 2f 20 00 	mov    0x202f6b(%rip),%rdi        # 2053c8 <global_offset>
    245d:	e8 e9 fe ff ff       	callq  234b <launch>
    2462:	48 8b 05 57 2f 20 00 	mov    0x202f57(%rip),%rax        # 2053c0 <global_save_stack>
    2469:	48 89 c4             	mov    %rax,%rsp
    246c:	be 00 00 10 00       	mov    $0x100000,%esi
    2471:	48 89 df             	mov    %rbx,%rdi
    2474:	e8 67 eb ff ff       	callq  fe0 <_init+0xe0>
    2479:	5b                   	pop    %rbx
    247a:	c3                   	retq   
    247b:	be 00 00 10 00       	mov    $0x100000,%esi
    2480:	48 89 c7             	mov    %rax,%rdi
    2483:	e8 58 eb ff ff       	callq  fe0 <_init+0xe0>
    2488:	b9 00 60 58 55       	mov    $0x55586000,%ecx
    248d:	48 8d 15 7c 15 00 00 	lea    0x157c(%rip),%rdx        # 3a10 <_IO_stdin_used+0x750>
    2494:	be 01 00 00 00       	mov    $0x1,%esi
    2499:	48 8b 3d 00 2f 20 00 	mov    0x202f00(%rip),%rdi        # 2053a0 <stderr@@GLIBC_2.2.5>
    24a0:	b8 00 00 00 00       	mov    $0x0,%eax
    24a5:	e8 76 eb ff ff       	callq  1020 <_init+0x120>
    24aa:	bf 01 00 00 00       	mov    $0x1,%edi
    24af:	e8 5c eb ff ff       	callq  1010 <_init+0x110>

00000000000024b4 <rio_readinitb>:
    24b4:	89 37                	mov    %esi,(%rdi)
    24b6:	c7 47 04 00 00 00 00 	movl   $0x0,0x4(%rdi)
    24bd:	48 8d 47 10          	lea    0x10(%rdi),%rax
    24c1:	48 89 47 08          	mov    %rax,0x8(%rdi)
    24c5:	c3                   	retq   

00000000000024c6 <sigalrm_handler>:
    24c6:	48 83 ec 08          	sub    $0x8,%rsp
    24ca:	b9 00 00 00 00       	mov    $0x0,%ecx
    24cf:	48 8d 15 7a 15 00 00 	lea    0x157a(%rip),%rdx        # 3a50 <trans_char+0x10>
    24d6:	be 01 00 00 00       	mov    $0x1,%esi
    24db:	48 8b 3d be 2e 20 00 	mov    0x202ebe(%rip),%rdi        # 2053a0 <stderr@@GLIBC_2.2.5>
    24e2:	b8 00 00 00 00       	mov    $0x0,%eax
    24e7:	e8 34 eb ff ff       	callq  1020 <_init+0x120>
    24ec:	bf 01 00 00 00       	mov    $0x1,%edi
    24f1:	e8 1a eb ff ff       	callq  1010 <_init+0x110>

00000000000024f6 <rio_writen>:
    24f6:	41 55                	push   %r13
    24f8:	41 54                	push   %r12
    24fa:	55                   	push   %rbp
    24fb:	53                   	push   %rbx
    24fc:	48 83 ec 08          	sub    $0x8,%rsp
    2500:	41 89 fc             	mov    %edi,%r12d
    2503:	49 89 d5             	mov    %rdx,%r13
    2506:	48 89 f5             	mov    %rsi,%rbp
    2509:	48 89 d3             	mov    %rdx,%rbx
    250c:	eb 06                	jmp    2514 <rio_writen+0x1e>
    250e:	48 29 c3             	sub    %rax,%rbx
    2511:	48 01 c5             	add    %rax,%rbp
    2514:	48 85 db             	test   %rbx,%rbx
    2517:	74 24                	je     253d <rio_writen+0x47>
    2519:	48 89 da             	mov    %rbx,%rdx
    251c:	48 89 ee             	mov    %rbp,%rsi
    251f:	44 89 e7             	mov    %r12d,%edi
    2522:	e8 39 ea ff ff       	callq  f60 <_init+0x60>
    2527:	48 85 c0             	test   %rax,%rax
    252a:	7f e2                	jg     250e <rio_writen+0x18>
    252c:	e8 07 ea ff ff       	callq  f38 <_init+0x38>
    2531:	83 38 04             	cmpl   $0x4,(%rax)
    2534:	75 15                	jne    254b <rio_writen+0x55>
    2536:	b8 00 00 00 00       	mov    $0x0,%eax
    253b:	eb d1                	jmp    250e <rio_writen+0x18>
    253d:	4c 89 e8             	mov    %r13,%rax
    2540:	48 83 c4 08          	add    $0x8,%rsp
    2544:	5b                   	pop    %rbx
    2545:	5d                   	pop    %rbp
    2546:	41 5c                	pop    %r12
    2548:	41 5d                	pop    %r13
    254a:	c3                   	retq   
    254b:	48 c7 c0 ff ff ff ff 	mov    $0xffffffffffffffff,%rax
    2552:	eb ec                	jmp    2540 <rio_writen+0x4a>

0000000000002554 <rio_read>:
    2554:	41 55                	push   %r13
    2556:	41 54                	push   %r12
    2558:	55                   	push   %rbp
    2559:	53                   	push   %rbx
    255a:	48 83 ec 08          	sub    $0x8,%rsp
    255e:	48 89 fb             	mov    %rdi,%rbx
    2561:	49 89 f5             	mov    %rsi,%r13
    2564:	49 89 d4             	mov    %rdx,%r12
    2567:	eb 0a                	jmp    2573 <rio_read+0x1f>
    2569:	e8 ca e9 ff ff       	callq  f38 <_init+0x38>
    256e:	83 38 04             	cmpl   $0x4,(%rax)
    2571:	75 5c                	jne    25cf <rio_read+0x7b>
    2573:	8b 6b 04             	mov    0x4(%rbx),%ebp
    2576:	85 ed                	test   %ebp,%ebp
    2578:	7f 24                	jg     259e <rio_read+0x4a>
    257a:	48 8d 6b 10          	lea    0x10(%rbx),%rbp
    257e:	8b 3b                	mov    (%rbx),%edi
    2580:	ba 00 20 00 00       	mov    $0x2000,%edx
    2585:	48 89 ee             	mov    %rbp,%rsi
    2588:	e8 03 ea ff ff       	callq  f90 <_init+0x90>
    258d:	89 43 04             	mov    %eax,0x4(%rbx)
    2590:	85 c0                	test   %eax,%eax
    2592:	78 d5                	js     2569 <rio_read+0x15>
    2594:	85 c0                	test   %eax,%eax
    2596:	74 40                	je     25d8 <rio_read+0x84>
    2598:	48 89 6b 08          	mov    %rbp,0x8(%rbx)
    259c:	eb d5                	jmp    2573 <rio_read+0x1f>
    259e:	89 e8                	mov    %ebp,%eax
    25a0:	49 39 c4             	cmp    %rax,%r12
    25a3:	77 03                	ja     25a8 <rio_read+0x54>
    25a5:	44 89 e5             	mov    %r12d,%ebp
    25a8:	4c 63 e5             	movslq %ebp,%r12
    25ab:	48 8b 73 08          	mov    0x8(%rbx),%rsi
    25af:	4c 89 e2             	mov    %r12,%rdx
    25b2:	4c 89 ef             	mov    %r13,%rdi
    25b5:	e8 fe e9 ff ff       	callq  fb8 <_init+0xb8>
    25ba:	4c 01 63 08          	add    %r12,0x8(%rbx)
    25be:	29 6b 04             	sub    %ebp,0x4(%rbx)
    25c1:	4c 89 e0             	mov    %r12,%rax
    25c4:	48 83 c4 08          	add    $0x8,%rsp
    25c8:	5b                   	pop    %rbx
    25c9:	5d                   	pop    %rbp
    25ca:	41 5c                	pop    %r12
    25cc:	41 5d                	pop    %r13
    25ce:	c3                   	retq   
    25cf:	48 c7 c0 ff ff ff ff 	mov    $0xffffffffffffffff,%rax
    25d6:	eb ec                	jmp    25c4 <rio_read+0x70>
    25d8:	b8 00 00 00 00       	mov    $0x0,%eax
    25dd:	eb e5                	jmp    25c4 <rio_read+0x70>

00000000000025df <rio_readlineb>:
    25df:	41 55                	push   %r13
    25e1:	41 54                	push   %r12
    25e3:	55                   	push   %rbp
    25e4:	53                   	push   %rbx
    25e5:	48 83 ec 18          	sub    $0x18,%rsp
    25e9:	49 89 fd             	mov    %rdi,%r13
    25ec:	49 89 d4             	mov    %rdx,%r12
    25ef:	64 48 8b 04 25 28 00 	mov    %fs:0x28,%rax
    25f6:	00 00 
    25f8:	48 89 44 24 08       	mov    %rax,0x8(%rsp)
    25fd:	31 c0                	xor    %eax,%eax
    25ff:	48 89 f5             	mov    %rsi,%rbp
    2602:	bb 01 00 00 00       	mov    $0x1,%ebx
    2607:	4c 39 e3             	cmp    %r12,%rbx
    260a:	73 47                	jae    2653 <rio_readlineb+0x74>
    260c:	48 8d 74 24 07       	lea    0x7(%rsp),%rsi
    2611:	ba 01 00 00 00       	mov    $0x1,%edx
    2616:	4c 89 ef             	mov    %r13,%rdi
    2619:	e8 36 ff ff ff       	callq  2554 <rio_read>
    261e:	83 f8 01             	cmp    $0x1,%eax
    2621:	75 1c                	jne    263f <rio_readlineb+0x60>
    2623:	48 8d 45 01          	lea    0x1(%rbp),%rax
    2627:	0f b6 54 24 07       	movzbl 0x7(%rsp),%edx
    262c:	88 55 00             	mov    %dl,0x0(%rbp)
    262f:	80 7c 24 07 0a       	cmpb   $0xa,0x7(%rsp)
    2634:	74 1a                	je     2650 <rio_readlineb+0x71>
    2636:	48 83 c3 01          	add    $0x1,%rbx
    263a:	48 89 c5             	mov    %rax,%rbp
    263d:	eb c8                	jmp    2607 <rio_readlineb+0x28>
    263f:	85 c0                	test   %eax,%eax
    2641:	75 32                	jne    2675 <rio_readlineb+0x96>
    2643:	48 83 fb 01          	cmp    $0x1,%rbx
    2647:	75 0a                	jne    2653 <rio_readlineb+0x74>
    2649:	b8 00 00 00 00       	mov    $0x0,%eax
    264e:	eb 0a                	jmp    265a <rio_readlineb+0x7b>
    2650:	48 89 c5             	mov    %rax,%rbp
    2653:	c6 45 00 00          	movb   $0x0,0x0(%rbp)
    2657:	48 89 d8             	mov    %rbx,%rax
    265a:	48 8b 4c 24 08       	mov    0x8(%rsp),%rcx
    265f:	64 48 33 0c 25 28 00 	xor    %fs:0x28,%rcx
    2666:	00 00 
    2668:	75 14                	jne    267e <rio_readlineb+0x9f>
    266a:	48 83 c4 18          	add    $0x18,%rsp
    266e:	5b                   	pop    %rbx
    266f:	5d                   	pop    %rbp
    2670:	41 5c                	pop    %r12
    2672:	41 5d                	pop    %r13
    2674:	c3                   	retq   
    2675:	48 c7 c0 ff ff ff ff 	mov    $0xffffffffffffffff,%rax
    267c:	eb dc                	jmp    265a <rio_readlineb+0x7b>
    267e:	e8 e5 e8 ff ff       	callq  f68 <_init+0x68>

0000000000002683 <urlencode>:
    2683:	41 54                	push   %r12
    2685:	55                   	push   %rbp
    2686:	53                   	push   %rbx
    2687:	48 83 ec 10          	sub    $0x10,%rsp
    268b:	48 89 fb             	mov    %rdi,%rbx
    268e:	48 89 f5             	mov    %rsi,%rbp
    2691:	64 48 8b 04 25 28 00 	mov    %fs:0x28,%rax
    2698:	00 00 
    269a:	48 89 44 24 08       	mov    %rax,0x8(%rsp)
    269f:	31 c0                	xor    %eax,%eax
    26a1:	48 c7 c1 ff ff ff ff 	mov    $0xffffffffffffffff,%rcx
    26a8:	f2 ae                	repnz scas %es:(%rdi),%al
    26aa:	48 f7 d1             	not    %rcx
    26ad:	8d 41 ff             	lea    -0x1(%rcx),%eax
    26b0:	eb 0f                	jmp    26c1 <urlencode+0x3e>
    26b2:	44 88 45 00          	mov    %r8b,0x0(%rbp)
    26b6:	48 8d 6d 01          	lea    0x1(%rbp),%rbp
    26ba:	48 83 c3 01          	add    $0x1,%rbx
    26be:	44 89 e0             	mov    %r12d,%eax
    26c1:	44 8d 60 ff          	lea    -0x1(%rax),%r12d
    26c5:	85 c0                	test   %eax,%eax
    26c7:	0f 84 a8 00 00 00    	je     2775 <urlencode+0xf2>
    26cd:	44 0f b6 03          	movzbl (%rbx),%r8d
    26d1:	41 80 f8 2a          	cmp    $0x2a,%r8b
    26d5:	0f 94 c2             	sete   %dl
    26d8:	41 80 f8 2d          	cmp    $0x2d,%r8b
    26dc:	0f 94 c0             	sete   %al
    26df:	08 c2                	or     %al,%dl
    26e1:	75 cf                	jne    26b2 <urlencode+0x2f>
    26e3:	41 80 f8 2e          	cmp    $0x2e,%r8b
    26e7:	74 c9                	je     26b2 <urlencode+0x2f>
    26e9:	41 80 f8 5f          	cmp    $0x5f,%r8b
    26ed:	74 c3                	je     26b2 <urlencode+0x2f>
    26ef:	41 8d 40 d0          	lea    -0x30(%r8),%eax
    26f3:	3c 09                	cmp    $0x9,%al
    26f5:	76 bb                	jbe    26b2 <urlencode+0x2f>
    26f7:	41 8d 40 bf          	lea    -0x41(%r8),%eax
    26fb:	3c 19                	cmp    $0x19,%al
    26fd:	76 b3                	jbe    26b2 <urlencode+0x2f>
    26ff:	41 8d 40 9f          	lea    -0x61(%r8),%eax
    2703:	3c 19                	cmp    $0x19,%al
    2705:	76 ab                	jbe    26b2 <urlencode+0x2f>
    2707:	41 80 f8 20          	cmp    $0x20,%r8b
    270b:	74 56                	je     2763 <urlencode+0xe0>
    270d:	41 8d 40 e0          	lea    -0x20(%r8),%eax
    2711:	3c 5f                	cmp    $0x5f,%al
    2713:	0f 96 c2             	setbe  %dl
    2716:	41 80 f8 09          	cmp    $0x9,%r8b
    271a:	0f 94 c0             	sete   %al
    271d:	08 c2                	or     %al,%dl
    271f:	74 4f                	je     2770 <urlencode+0xed>
    2721:	48 89 e7             	mov    %rsp,%rdi
    2724:	45 0f b6 c0          	movzbl %r8b,%r8d
    2728:	48 8d 0d b9 13 00 00 	lea    0x13b9(%rip),%rcx        # 3ae8 <trans_char+0xa8>
    272f:	ba 08 00 00 00       	mov    $0x8,%edx
    2734:	be 01 00 00 00       	mov    $0x1,%esi
    2739:	b8 00 00 00 00       	mov    $0x0,%eax
    273e:	e8 ed e8 ff ff       	callq  1030 <_init+0x130>
    2743:	0f b6 04 24          	movzbl (%rsp),%eax
    2747:	88 45 00             	mov    %al,0x0(%rbp)
    274a:	0f b6 44 24 01       	movzbl 0x1(%rsp),%eax
    274f:	88 45 01             	mov    %al,0x1(%rbp)
    2752:	0f b6 44 24 02       	movzbl 0x2(%rsp),%eax
    2757:	88 45 02             	mov    %al,0x2(%rbp)
    275a:	48 8d 6d 03          	lea    0x3(%rbp),%rbp
    275e:	e9 57 ff ff ff       	jmpq   26ba <urlencode+0x37>
    2763:	c6 45 00 2b          	movb   $0x2b,0x0(%rbp)
    2767:	48 8d 6d 01          	lea    0x1(%rbp),%rbp
    276b:	e9 4a ff ff ff       	jmpq   26ba <urlencode+0x37>
    2770:	b8 ff ff ff ff       	mov    $0xffffffff,%eax
    2775:	48 8b 74 24 08       	mov    0x8(%rsp),%rsi
    277a:	64 48 33 34 25 28 00 	xor    %fs:0x28,%rsi
    2781:	00 00 
    2783:	75 09                	jne    278e <urlencode+0x10b>
    2785:	48 83 c4 10          	add    $0x10,%rsp
    2789:	5b                   	pop    %rbx
    278a:	5d                   	pop    %rbp
    278b:	41 5c                	pop    %r12
    278d:	c3                   	retq   
    278e:	e8 d5 e7 ff ff       	callq  f68 <_init+0x68>

0000000000002793 <submitr>:
    2793:	41 57                	push   %r15
    2795:	41 56                	push   %r14
    2797:	41 55                	push   %r13
    2799:	41 54                	push   %r12
    279b:	55                   	push   %rbp
    279c:	53                   	push   %rbx
    279d:	48 81 ec 68 a0 00 00 	sub    $0xa068,%rsp
    27a4:	49 89 fd             	mov    %rdi,%r13
    27a7:	89 74 24 14          	mov    %esi,0x14(%rsp)
    27ab:	49 89 d7             	mov    %rdx,%r15
    27ae:	48 89 4c 24 08       	mov    %rcx,0x8(%rsp)
    27b3:	4c 89 44 24 18       	mov    %r8,0x18(%rsp)
    27b8:	4d 89 ce             	mov    %r9,%r14
    27bb:	48 8b 9c 24 a0 a0 00 	mov    0xa0a0(%rsp),%rbx
    27c2:	00 
    27c3:	64 48 8b 04 25 28 00 	mov    %fs:0x28,%rax
    27ca:	00 00 
    27cc:	48 89 84 24 58 a0 00 	mov    %rax,0xa058(%rsp)
    27d3:	00 
    27d4:	31 c0                	xor    %eax,%eax
    27d6:	c7 44 24 2c 00 00 00 	movl   $0x0,0x2c(%rsp)
    27dd:	00 
    27de:	ba 00 00 00 00       	mov    $0x0,%edx
    27e3:	be 01 00 00 00       	mov    $0x1,%esi
    27e8:	bf 02 00 00 00       	mov    $0x2,%edi
    27ed:	e8 46 e8 ff ff       	callq  1038 <_init+0x138>
    27f2:	85 c0                	test   %eax,%eax
    27f4:	0f 88 c8 01 00 00    	js     29c2 <submitr+0x22f>
    27fa:	89 c5                	mov    %eax,%ebp
    27fc:	4c 89 ef             	mov    %r13,%rdi
    27ff:	e8 9c e7 ff ff       	callq  fa0 <_init+0xa0>
    2804:	48 85 c0             	test   %rax,%rax
    2807:	0f 84 03 02 00 00    	je     2a10 <submitr+0x27d>
    280d:	4c 8d 64 24 30       	lea    0x30(%rsp),%r12
    2812:	48 c7 44 24 30 00 00 	movq   $0x0,0x30(%rsp)
    2819:	00 00 
    281b:	48 c7 44 24 38 00 00 	movq   $0x0,0x38(%rsp)
    2822:	00 00 
    2824:	66 c7 44 24 30 02 00 	movw   $0x2,0x30(%rsp)
    282b:	48 63 50 14          	movslq 0x14(%rax),%rdx
    282f:	48 8b 40 18          	mov    0x18(%rax),%rax
    2833:	48 8b 30             	mov    (%rax),%rsi
    2836:	48 8d 7c 24 34       	lea    0x34(%rsp),%rdi
    283b:	b9 0c 00 00 00       	mov    $0xc,%ecx
    2840:	e8 63 e7 ff ff       	callq  fa8 <_init+0xa8>
    2845:	0f b7 44 24 14       	movzwl 0x14(%rsp),%eax
    284a:	66 c1 c8 08          	ror    $0x8,%ax
    284e:	66 89 44 24 32       	mov    %ax,0x32(%rsp)
    2853:	ba 10 00 00 00       	mov    $0x10,%edx
    2858:	4c 89 e6             	mov    %r12,%rsi
    285b:	89 ef                	mov    %ebp,%edi
    285d:	e8 b6 e7 ff ff       	callq  1018 <_init+0x118>
    2862:	85 c0                	test   %eax,%eax
    2864:	0f 88 0d 02 00 00    	js     2a77 <submitr+0x2e4>
    286a:	48 c7 c6 ff ff ff ff 	mov    $0xffffffffffffffff,%rsi
    2871:	b8 00 00 00 00       	mov    $0x0,%eax
    2876:	48 89 f1             	mov    %rsi,%rcx
    2879:	4c 89 f7             	mov    %r14,%rdi
    287c:	f2 ae                	repnz scas %es:(%rdi),%al
    287e:	48 f7 d1             	not    %rcx
    2881:	48 89 ca             	mov    %rcx,%rdx
    2884:	48 89 f1             	mov    %rsi,%rcx
    2887:	4c 89 ff             	mov    %r15,%rdi
    288a:	f2 ae                	repnz scas %es:(%rdi),%al
    288c:	48 f7 d1             	not    %rcx
    288f:	49 89 c8             	mov    %rcx,%r8
    2892:	48 89 f1             	mov    %rsi,%rcx
    2895:	48 8b 7c 24 08       	mov    0x8(%rsp),%rdi
    289a:	f2 ae                	repnz scas %es:(%rdi),%al
    289c:	48 f7 d1             	not    %rcx
    289f:	4d 8d 44 08 fe       	lea    -0x2(%r8,%rcx,1),%r8
    28a4:	48 89 f1             	mov    %rsi,%rcx
    28a7:	48 8b 7c 24 18       	mov    0x18(%rsp),%rdi
    28ac:	f2 ae                	repnz scas %es:(%rdi),%al
    28ae:	48 89 c8             	mov    %rcx,%rax
    28b1:	48 f7 d0             	not    %rax
    28b4:	49 8d 4c 00 ff       	lea    -0x1(%r8,%rax,1),%rcx
    28b9:	48 8d 44 52 fd       	lea    -0x3(%rdx,%rdx,2),%rax
    28be:	48 8d 84 01 80 00 00 	lea    0x80(%rcx,%rax,1),%rax
    28c5:	00 
    28c6:	48 3d 00 20 00 00    	cmp    $0x2000,%rax
    28cc:	0f 87 fe 01 00 00    	ja     2ad0 <submitr+0x33d>
    28d2:	48 8d b4 24 50 40 00 	lea    0x4050(%rsp),%rsi
    28d9:	00 
    28da:	b9 00 04 00 00       	mov    $0x400,%ecx
    28df:	b8 00 00 00 00       	mov    $0x0,%eax
    28e4:	48 89 f7             	mov    %rsi,%rdi
    28e7:	f3 48 ab             	rep stos %rax,%es:(%rdi)
    28ea:	4c 89 f7             	mov    %r14,%rdi
    28ed:	e8 91 fd ff ff       	callq  2683 <urlencode>
    28f2:	85 c0                	test   %eax,%eax
    28f4:	0f 88 48 02 00 00    	js     2b42 <submitr+0x3af>
    28fa:	4c 8d a4 24 50 20 00 	lea    0x2050(%rsp),%r12
    2901:	00 
    2902:	41 55                	push   %r13
    2904:	48 8d 84 24 58 40 00 	lea    0x4058(%rsp),%rax
    290b:	00 
    290c:	50                   	push   %rax
    290d:	4d 89 f9             	mov    %r15,%r9
    2910:	4c 8b 44 24 18       	mov    0x18(%rsp),%r8
    2915:	48 8d 0d 5c 11 00 00 	lea    0x115c(%rip),%rcx        # 3a78 <trans_char+0x38>
    291c:	ba 00 20 00 00       	mov    $0x2000,%edx
    2921:	be 01 00 00 00       	mov    $0x1,%esi
    2926:	4c 89 e7             	mov    %r12,%rdi
    2929:	b8 00 00 00 00       	mov    $0x0,%eax
    292e:	e8 fd e6 ff ff       	callq  1030 <_init+0x130>
    2933:	b8 00 00 00 00       	mov    $0x0,%eax
    2938:	48 c7 c1 ff ff ff ff 	mov    $0xffffffffffffffff,%rcx
    293f:	4c 89 e7             	mov    %r12,%rdi
    2942:	f2 ae                	repnz scas %es:(%rdi),%al
    2944:	48 f7 d1             	not    %rcx
    2947:	48 8d 51 ff          	lea    -0x1(%rcx),%rdx
    294b:	4c 89 e6             	mov    %r12,%rsi
    294e:	89 ef                	mov    %ebp,%edi
    2950:	e8 a1 fb ff ff       	callq  24f6 <rio_writen>
    2955:	48 83 c4 10          	add    $0x10,%rsp
    2959:	48 85 c0             	test   %rax,%rax
    295c:	0f 88 6a 02 00 00    	js     2bcc <submitr+0x439>
    2962:	4c 8d 64 24 40       	lea    0x40(%rsp),%r12
    2967:	89 ee                	mov    %ebp,%esi
    2969:	4c 89 e7             	mov    %r12,%rdi
    296c:	e8 43 fb ff ff       	callq  24b4 <rio_readinitb>
    2971:	48 8d b4 24 50 20 00 	lea    0x2050(%rsp),%rsi
    2978:	00 
    2979:	ba 00 20 00 00       	mov    $0x2000,%edx
    297e:	4c 89 e7             	mov    %r12,%rdi
    2981:	e8 59 fc ff ff       	callq  25df <rio_readlineb>
    2986:	48 85 c0             	test   %rax,%rax
    2989:	0f 8e ab 02 00 00    	jle    2c3a <submitr+0x4a7>
    298f:	48 8d 4c 24 2c       	lea    0x2c(%rsp),%rcx
    2994:	48 8d 94 24 50 60 00 	lea    0x6050(%rsp),%rdx
    299b:	00 
    299c:	48 8d bc 24 50 20 00 	lea    0x2050(%rsp),%rdi
    29a3:	00 
    29a4:	4c 8d 84 24 50 80 00 	lea    0x8050(%rsp),%r8
    29ab:	00 
    29ac:	48 8d 35 3c 11 00 00 	lea    0x113c(%rip),%rsi        # 3aef <trans_char+0xaf>
    29b3:	b8 00 00 00 00       	mov    $0x0,%eax
    29b8:	e8 1b e6 ff ff       	callq  fd8 <_init+0xd8>
    29bd:	e9 b3 03 00 00       	jmpq   2d75 <submitr+0x5e2>
    29c2:	48 b8 45 72 72 6f 72 	movabs $0x43203a726f727245,%rax
    29c9:	3a 20 43 
    29cc:	48 89 03             	mov    %rax,(%rbx)
    29cf:	48 b8 6c 69 65 6e 74 	movabs $0x6e7520746e65696c,%rax
    29d6:	20 75 6e 
    29d9:	48 89 43 08          	mov    %rax,0x8(%rbx)
    29dd:	48 b8 61 62 6c 65 20 	movabs $0x206f7420656c6261,%rax
    29e4:	74 6f 20 
    29e7:	48 89 43 10          	mov    %rax,0x10(%rbx)
    29eb:	48 b8 63 72 65 61 74 	movabs $0x7320657461657263,%rax
    29f2:	65 20 73 
    29f5:	48 89 43 18          	mov    %rax,0x18(%rbx)
    29f9:	c7 43 20 6f 63 6b 65 	movl   $0x656b636f,0x20(%rbx)
    2a00:	66 c7 43 24 74 00    	movw   $0x74,0x24(%rbx)
    2a06:	b8 ff ff ff ff       	mov    $0xffffffff,%eax
    2a0b:	e9 18 03 00 00       	jmpq   2d28 <submitr+0x595>
    2a10:	48 b8 45 72 72 6f 72 	movabs $0x44203a726f727245,%rax
    2a17:	3a 20 44 
    2a1a:	48 89 03             	mov    %rax,(%rbx)
    2a1d:	48 b8 4e 53 20 69 73 	movabs $0x6e7520736920534e,%rax
    2a24:	20 75 6e 
    2a27:	48 89 43 08          	mov    %rax,0x8(%rbx)
    2a2b:	48 b8 61 62 6c 65 20 	movabs $0x206f7420656c6261,%rax
    2a32:	74 6f 20 
    2a35:	48 89 43 10          	mov    %rax,0x10(%rbx)
    2a39:	48 b8 72 65 73 6f 6c 	movabs $0x2065766c6f736572,%rax
    2a40:	76 65 20 
    2a43:	48 89 43 18          	mov    %rax,0x18(%rbx)
    2a47:	48 b8 73 65 72 76 65 	movabs $0x6120726576726573,%rax
    2a4e:	72 20 61 
    2a51:	48 89 43 20          	mov    %rax,0x20(%rbx)
    2a55:	c7 43 28 64 64 72 65 	movl   $0x65726464,0x28(%rbx)
    2a5c:	66 c7 43 2c 73 73    	movw   $0x7373,0x2c(%rbx)
    2a62:	c6 43 2e 00          	movb   $0x0,0x2e(%rbx)
    2a66:	89 ef                	mov    %ebp,%edi
    2a68:	e8 1b e5 ff ff       	callq  f88 <_init+0x88>
    2a6d:	b8 ff ff ff ff       	mov    $0xffffffff,%eax
    2a72:	e9 b1 02 00 00       	jmpq   2d28 <submitr+0x595>
    2a77:	48 b8 45 72 72 6f 72 	movabs $0x55203a726f727245,%rax
    2a7e:	3a 20 55 
    2a81:	48 89 03             	mov    %rax,(%rbx)
    2a84:	48 b8 6e 61 62 6c 65 	movabs $0x6f7420656c62616e,%rax
    2a8b:	20 74 6f 
    2a8e:	48 89 43 08          	mov    %rax,0x8(%rbx)
    2a92:	48 b8 20 63 6f 6e 6e 	movabs $0x7463656e6e6f6320,%rax
    2a99:	65 63 74 
    2a9c:	48 89 43 10          	mov    %rax,0x10(%rbx)
    2aa0:	48 b8 20 74 6f 20 74 	movabs $0x20656874206f7420,%rax
    2aa7:	68 65 20 
    2aaa:	48 89 43 18          	mov    %rax,0x18(%rbx)
    2aae:	c7 43 20 73 65 72 76 	movl   $0x76726573,0x20(%rbx)
    2ab5:	66 c7 43 24 65 72    	movw   $0x7265,0x24(%rbx)
    2abb:	c6 43 26 00          	movb   $0x0,0x26(%rbx)
    2abf:	89 ef                	mov    %ebp,%edi
    2ac1:	e8 c2 e4 ff ff       	callq  f88 <_init+0x88>
    2ac6:	b8 ff ff ff ff       	mov    $0xffffffff,%eax
    2acb:	e9 58 02 00 00       	jmpq   2d28 <submitr+0x595>
    2ad0:	48 b8 45 72 72 6f 72 	movabs $0x52203a726f727245,%rax
    2ad7:	3a 20 52 
    2ada:	48 89 03             	mov    %rax,(%rbx)
    2add:	48 b8 65 73 75 6c 74 	movabs $0x747320746c757365,%rax
    2ae4:	20 73 74 
    2ae7:	48 89 43 08          	mov    %rax,0x8(%rbx)
    2aeb:	48 b8 72 69 6e 67 20 	movabs $0x6f6f7420676e6972,%rax
    2af2:	74 6f 6f 
    2af5:	48 89 43 10          	mov    %rax,0x10(%rbx)
    2af9:	48 b8 20 6c 61 72 67 	movabs $0x202e656772616c20,%rax
    2b00:	65 2e 20 
    2b03:	48 89 43 18          	mov    %rax,0x18(%rbx)
    2b07:	48 b8 49 6e 63 72 65 	movabs $0x6573616572636e49,%rax
    2b0e:	61 73 65 
    2b11:	48 89 43 20          	mov    %rax,0x20(%rbx)
    2b15:	48 b8 20 53 55 42 4d 	movabs $0x5254494d42555320,%rax
    2b1c:	49 54 52 
    2b1f:	48 89 43 28          	mov    %rax,0x28(%rbx)
    2b23:	48 b8 5f 4d 41 58 42 	movabs $0x46554258414d5f,%rax
    2b2a:	55 46 00 
    2b2d:	48 89 43 30          	mov    %rax,0x30(%rbx)
    2b31:	89 ef                	mov    %ebp,%edi
    2b33:	e8 50 e4 ff ff       	callq  f88 <_init+0x88>
    2b38:	b8 ff ff ff ff       	mov    $0xffffffff,%eax
    2b3d:	e9 e6 01 00 00       	jmpq   2d28 <submitr+0x595>
    2b42:	48 b8 45 72 72 6f 72 	movabs $0x52203a726f727245,%rax
    2b49:	3a 20 52 
    2b4c:	48 89 03             	mov    %rax,(%rbx)
    2b4f:	48 b8 65 73 75 6c 74 	movabs $0x747320746c757365,%rax
    2b56:	20 73 74 
    2b59:	48 89 43 08          	mov    %rax,0x8(%rbx)
    2b5d:	48 b8 72 69 6e 67 20 	movabs $0x6e6f6320676e6972,%rax
    2b64:	63 6f 6e 
    2b67:	48 89 43 10          	mov    %rax,0x10(%rbx)
    2b6b:	48 b8 74 61 69 6e 73 	movabs $0x6e6120736e696174,%rax
    2b72:	20 61 6e 
    2b75:	48 89 43 18          	mov    %rax,0x18(%rbx)
    2b79:	48 b8 20 69 6c 6c 65 	movabs $0x6c6167656c6c6920,%rax
    2b80:	67 61 6c 
    2b83:	48 89 43 20          	mov    %rax,0x20(%rbx)
    2b87:	48 b8 20 6f 72 20 75 	movabs $0x72706e7520726f20,%rax
    2b8e:	6e 70 72 
    2b91:	48 89 43 28          	mov    %rax,0x28(%rbx)
    2b95:	48 b8 69 6e 74 61 62 	movabs $0x20656c6261746e69,%rax
    2b9c:	6c 65 20 
    2b9f:	48 89 43 30          	mov    %rax,0x30(%rbx)
    2ba3:	48 b8 63 68 61 72 61 	movabs $0x6574636172616863,%rax
    2baa:	63 74 65 
    2bad:	48 89 43 38          	mov    %rax,0x38(%rbx)
    2bb1:	66 c7 43 40 72 2e    	movw   $0x2e72,0x40(%rbx)
    2bb7:	c6 43 42 00          	movb   $0x0,0x42(%rbx)
    2bbb:	89 ef                	mov    %ebp,%edi
    2bbd:	e8 c6 e3 ff ff       	callq  f88 <_init+0x88>
    2bc2:	b8 ff ff ff ff       	mov    $0xffffffff,%eax
    2bc7:	e9 5c 01 00 00       	jmpq   2d28 <submitr+0x595>
    2bcc:	48 b8 45 72 72 6f 72 	movabs $0x43203a726f727245,%rax
    2bd3:	3a 20 43 
    2bd6:	48 89 03             	mov    %rax,(%rbx)
    2bd9:	48 b8 6c 69 65 6e 74 	movabs $0x6e7520746e65696c,%rax
    2be0:	20 75 6e 
    2be3:	48 89 43 08          	mov    %rax,0x8(%rbx)
    2be7:	48 b8 61 62 6c 65 20 	movabs $0x206f7420656c6261,%rax
    2bee:	74 6f 20 
    2bf1:	48 89 43 10          	mov    %rax,0x10(%rbx)
    2bf5:	48 b8 77 72 69 74 65 	movabs $0x6f74206574697277,%rax
    2bfc:	20 74 6f 
    2bff:	48 89 43 18          	mov    %rax,0x18(%rbx)
    2c03:	48 b8 20 74 68 65 20 	movabs $0x7365722065687420,%rax
    2c0a:	72 65 73 
    2c0d:	48 89 43 20          	mov    %rax,0x20(%rbx)
    2c11:	48 b8 75 6c 74 20 73 	movabs $0x7672657320746c75,%rax
    2c18:	65 72 76 
    2c1b:	48 89 43 28          	mov    %rax,0x28(%rbx)
    2c1f:	66 c7 43 30 65 72    	movw   $0x7265,0x30(%rbx)
    2c25:	c6 43 32 00          	movb   $0x0,0x32(%rbx)
    2c29:	89 ef                	mov    %ebp,%edi
    2c2b:	e8 58 e3 ff ff       	callq  f88 <_init+0x88>
    2c30:	b8 ff ff ff ff       	mov    $0xffffffff,%eax
    2c35:	e9 ee 00 00 00       	jmpq   2d28 <submitr+0x595>
    2c3a:	48 b8 45 72 72 6f 72 	movabs $0x43203a726f727245,%rax
    2c41:	3a 20 43 
    2c44:	48 89 03             	mov    %rax,(%rbx)
    2c47:	48 b8 6c 69 65 6e 74 	movabs $0x6e7520746e65696c,%rax
    2c4e:	20 75 6e 
    2c51:	48 89 43 08          	mov    %rax,0x8(%rbx)
    2c55:	48 b8 61 62 6c 65 20 	movabs $0x206f7420656c6261,%rax
    2c5c:	74 6f 20 
    2c5f:	48 89 43 10          	mov    %rax,0x10(%rbx)
    2c63:	48 b8 72 65 61 64 20 	movabs $0x7269662064616572,%rax
    2c6a:	66 69 72 
    2c6d:	48 89 43 18          	mov    %rax,0x18(%rbx)
    2c71:	48 b8 73 74 20 68 65 	movabs $0x6564616568207473,%rax
    2c78:	61 64 65 
    2c7b:	48 89 43 20          	mov    %rax,0x20(%rbx)
    2c7f:	48 b8 72 20 66 72 6f 	movabs $0x72206d6f72662072,%rax
    2c86:	6d 20 72 
    2c89:	48 89 43 28          	mov    %rax,0x28(%rbx)
    2c8d:	48 b8 65 73 75 6c 74 	movabs $0x657320746c757365,%rax
    2c94:	20 73 65 
    2c97:	48 89 43 30          	mov    %rax,0x30(%rbx)
    2c9b:	c7 43 38 72 76 65 72 	movl   $0x72657672,0x38(%rbx)
    2ca2:	c6 43 3c 00          	movb   $0x0,0x3c(%rbx)
    2ca6:	89 ef                	mov    %ebp,%edi
    2ca8:	e8 db e2 ff ff       	callq  f88 <_init+0x88>
    2cad:	b8 ff ff ff ff       	mov    $0xffffffff,%eax
    2cb2:	eb 74                	jmp    2d28 <submitr+0x595>
    2cb4:	48 b8 45 72 72 6f 72 	movabs $0x43203a726f727245,%rax
    2cbb:	3a 20 43 
    2cbe:	48 89 03             	mov    %rax,(%rbx)
    2cc1:	48 b8 6c 69 65 6e 74 	movabs $0x6e7520746e65696c,%rax
    2cc8:	20 75 6e 
    2ccb:	48 89 43 08          	mov    %rax,0x8(%rbx)
    2ccf:	48 b8 61 62 6c 65 20 	movabs $0x206f7420656c6261,%rax
    2cd6:	74 6f 20 
    2cd9:	48 89 43 10          	mov    %rax,0x10(%rbx)
    2cdd:	48 b8 72 65 61 64 20 	movabs $0x6165682064616572,%rax
    2ce4:	68 65 61 
    2ce7:	48 89 43 18          	mov    %rax,0x18(%rbx)
    2ceb:	48 b8 64 65 72 73 20 	movabs $0x6f72662073726564,%rax
    2cf2:	66 72 6f 
    2cf5:	48 89 43 20          	mov    %rax,0x20(%rbx)
    2cf9:	48 b8 6d 20 74 68 65 	movabs $0x657220656874206d,%rax
    2d00:	20 72 65 
    2d03:	48 89 43 28          	mov    %rax,0x28(%rbx)
    2d07:	48 b8 73 75 6c 74 20 	movabs $0x72657320746c7573,%rax
    2d0e:	73 65 72 
    2d11:	48 89 43 30          	mov    %rax,0x30(%rbx)
    2d15:	c7 43 38 76 65 72 00 	movl   $0x726576,0x38(%rbx)
    2d1c:	89 ef                	mov    %ebp,%edi
    2d1e:	e8 65 e2 ff ff       	callq  f88 <_init+0x88>
    2d23:	b8 ff ff ff ff       	mov    $0xffffffff,%eax
    2d28:	48 8b 9c 24 58 a0 00 	mov    0xa058(%rsp),%rbx
    2d2f:	00 
    2d30:	64 48 33 1c 25 28 00 	xor    %fs:0x28,%rbx
    2d37:	00 00 
    2d39:	0f 85 fb 01 00 00    	jne    2f3a <submitr+0x7a7>
    2d3f:	48 81 c4 68 a0 00 00 	add    $0xa068,%rsp
    2d46:	5b                   	pop    %rbx
    2d47:	5d                   	pop    %rbp
    2d48:	41 5c                	pop    %r12
    2d4a:	41 5d                	pop    %r13
    2d4c:	41 5e                	pop    %r14
    2d4e:	41 5f                	pop    %r15
    2d50:	c3                   	retq   
    2d51:	85 c0                	test   %eax,%eax
    2d53:	74 4e                	je     2da3 <submitr+0x610>
    2d55:	48 8d b4 24 50 20 00 	lea    0x2050(%rsp),%rsi
    2d5c:	00 
    2d5d:	48 8d 7c 24 40       	lea    0x40(%rsp),%rdi
    2d62:	ba 00 20 00 00       	mov    $0x2000,%edx
    2d67:	e8 73 f8 ff ff       	callq  25df <rio_readlineb>
    2d6c:	48 85 c0             	test   %rax,%rax
    2d6f:	0f 8e 3f ff ff ff    	jle    2cb4 <submitr+0x521>
    2d75:	0f b6 94 24 50 20 00 	movzbl 0x2050(%rsp),%edx
    2d7c:	00 
    2d7d:	b8 0d 00 00 00       	mov    $0xd,%eax
    2d82:	29 d0                	sub    %edx,%eax
    2d84:	75 cb                	jne    2d51 <submitr+0x5be>
    2d86:	0f b6 94 24 51 20 00 	movzbl 0x2051(%rsp),%edx
    2d8d:	00 
    2d8e:	b8 0a 00 00 00       	mov    $0xa,%eax
    2d93:	29 d0                	sub    %edx,%eax
    2d95:	75 ba                	jne    2d51 <submitr+0x5be>
    2d97:	0f b6 84 24 52 20 00 	movzbl 0x2052(%rsp),%eax
    2d9e:	00 
    2d9f:	f7 d8                	neg    %eax
    2da1:	eb ae                	jmp    2d51 <submitr+0x5be>
    2da3:	48 8d b4 24 50 20 00 	lea    0x2050(%rsp),%rsi
    2daa:	00 
    2dab:	48 8d 7c 24 40       	lea    0x40(%rsp),%rdi
    2db0:	ba 00 20 00 00       	mov    $0x2000,%edx
    2db5:	e8 25 f8 ff ff       	callq  25df <rio_readlineb>
    2dba:	48 85 c0             	test   %rax,%rax
    2dbd:	7e 66                	jle    2e25 <submitr+0x692>
    2dbf:	44 8b 44 24 2c       	mov    0x2c(%rsp),%r8d
    2dc4:	41 81 f8 c8 00 00 00 	cmp    $0xc8,%r8d
    2dcb:	0f 85 d7 00 00 00    	jne    2ea8 <submitr+0x715>
    2dd1:	48 8d b4 24 50 20 00 	lea    0x2050(%rsp),%rsi
    2dd8:	00 
    2dd9:	48 89 df             	mov    %rbx,%rdi
    2ddc:	e8 6f e1 ff ff       	callq  f50 <_init+0x50>
    2de1:	89 ef                	mov    %ebp,%edi
    2de3:	e8 a0 e1 ff ff       	callq  f88 <_init+0x88>
    2de8:	0f b6 03             	movzbl (%rbx),%eax
    2deb:	ba 4f 00 00 00       	mov    $0x4f,%edx
    2df0:	29 c2                	sub    %eax,%edx
    2df2:	0f 85 e9 00 00 00    	jne    2ee1 <submitr+0x74e>
    2df8:	0f b6 4b 01          	movzbl 0x1(%rbx),%ecx
    2dfc:	b8 4b 00 00 00       	mov    $0x4b,%eax
    2e01:	29 c8                	sub    %ecx,%eax
    2e03:	0f 85 da 00 00 00    	jne    2ee3 <submitr+0x750>
    2e09:	0f b6 4b 02          	movzbl 0x2(%rbx),%ecx
    2e0d:	b8 0a 00 00 00       	mov    $0xa,%eax
    2e12:	29 c8                	sub    %ecx,%eax
    2e14:	0f 85 c9 00 00 00    	jne    2ee3 <submitr+0x750>
    2e1a:	0f b6 43 03          	movzbl 0x3(%rbx),%eax
    2e1e:	f7 d8                	neg    %eax
    2e20:	e9 be 00 00 00       	jmpq   2ee3 <submitr+0x750>
    2e25:	48 b8 45 72 72 6f 72 	movabs $0x43203a726f727245,%rax
    2e2c:	3a 20 43 
    2e2f:	48 89 03             	mov    %rax,(%rbx)
    2e32:	48 b8 6c 69 65 6e 74 	movabs $0x6e7520746e65696c,%rax
    2e39:	20 75 6e 
    2e3c:	48 89 43 08          	mov    %rax,0x8(%rbx)
    2e40:	48 b8 61 62 6c 65 20 	movabs $0x206f7420656c6261,%rax
    2e47:	74 6f 20 
    2e4a:	48 89 43 10          	mov    %rax,0x10(%rbx)
    2e4e:	48 b8 72 65 61 64 20 	movabs $0x6174732064616572,%rax
    2e55:	73 74 61 
    2e58:	48 89 43 18          	mov    %rax,0x18(%rbx)
    2e5c:	48 b8 74 75 73 20 6d 	movabs $0x7373656d20737574,%rax
    2e63:	65 73 73 
    2e66:	48 89 43 20          	mov    %rax,0x20(%rbx)
    2e6a:	48 b8 61 67 65 20 66 	movabs $0x6d6f726620656761,%rax
    2e71:	72 6f 6d 
    2e74:	48 89 43 28          	mov    %rax,0x28(%rbx)
    2e78:	48 b8 20 72 65 73 75 	movabs $0x20746c7573657220,%rax
    2e7f:	6c 74 20 
    2e82:	48 89 43 30          	mov    %rax,0x30(%rbx)
    2e86:	c7 43 38 73 65 72 76 	movl   $0x76726573,0x38(%rbx)
    2e8d:	66 c7 43 3c 65 72    	movw   $0x7265,0x3c(%rbx)
    2e93:	c6 43 3e 00          	movb   $0x0,0x3e(%rbx)
    2e97:	89 ef                	mov    %ebp,%edi
    2e99:	e8 ea e0 ff ff       	callq  f88 <_init+0x88>
    2e9e:	b8 ff ff ff ff       	mov    $0xffffffff,%eax
    2ea3:	e9 80 fe ff ff       	jmpq   2d28 <submitr+0x595>
    2ea8:	4c 8d 8c 24 50 80 00 	lea    0x8050(%rsp),%r9
    2eaf:	00 
    2eb0:	48 8d 0d 01 0c 00 00 	lea    0xc01(%rip),%rcx        # 3ab8 <trans_char+0x78>
    2eb7:	48 c7 c2 ff ff ff ff 	mov    $0xffffffffffffffff,%rdx
    2ebe:	be 01 00 00 00       	mov    $0x1,%esi
    2ec3:	48 89 df             	mov    %rbx,%rdi
    2ec6:	b8 00 00 00 00       	mov    $0x0,%eax
    2ecb:	e8 60 e1 ff ff       	callq  1030 <_init+0x130>
    2ed0:	89 ef                	mov    %ebp,%edi
    2ed2:	e8 b1 e0 ff ff       	callq  f88 <_init+0x88>
    2ed7:	b8 ff ff ff ff       	mov    $0xffffffff,%eax
    2edc:	e9 47 fe ff ff       	jmpq   2d28 <submitr+0x595>
    2ee1:	89 d0                	mov    %edx,%eax
    2ee3:	f7 d8                	neg    %eax
    2ee5:	0f 84 3d fe ff ff    	je     2d28 <submitr+0x595>
    2eeb:	b9 05 00 00 00       	mov    $0x5,%ecx
    2ef0:	48 8d 3d 09 0c 00 00 	lea    0xc09(%rip),%rdi        # 3b00 <trans_char+0xc0>
    2ef7:	48 89 de             	mov    %rbx,%rsi
    2efa:	f3 a6                	repz cmpsb %es:(%rdi),%ds:(%rsi)
    2efc:	0f 97 c0             	seta   %al
    2eff:	0f 92 c1             	setb   %cl
    2f02:	29 c8                	sub    %ecx,%eax
    2f04:	0f be c0             	movsbl %al,%eax
    2f07:	85 c0                	test   %eax,%eax
    2f09:	0f 84 19 fe ff ff    	je     2d28 <submitr+0x595>
    2f0f:	85 d2                	test   %edx,%edx
    2f11:	75 13                	jne    2f26 <submitr+0x793>
    2f13:	0f b6 43 01          	movzbl 0x1(%rbx),%eax
    2f17:	ba 4b 00 00 00       	mov    $0x4b,%edx
    2f1c:	29 c2                	sub    %eax,%edx
    2f1e:	75 06                	jne    2f26 <submitr+0x793>
    2f20:	0f b6 53 02          	movzbl 0x2(%rbx),%edx
    2f24:	f7 da                	neg    %edx
    2f26:	89 d0                	mov    %edx,%eax
    2f28:	f7 d8                	neg    %eax
    2f2a:	0f 84 f8 fd ff ff    	je     2d28 <submitr+0x595>
    2f30:	b8 ff ff ff ff       	mov    $0xffffffff,%eax
    2f35:	e9 ee fd ff ff       	jmpq   2d28 <submitr+0x595>
    2f3a:	e8 29 e0 ff ff       	callq  f68 <_init+0x68>

0000000000002f3f <init_timeout>:
    2f3f:	85 ff                	test   %edi,%edi
    2f41:	74 20                	je     2f63 <init_timeout+0x24>
    2f43:	53                   	push   %rbx
    2f44:	89 fb                	mov    %edi,%ebx
    2f46:	85 ff                	test   %edi,%edi
    2f48:	78 1b                	js     2f65 <init_timeout+0x26>
    2f4a:	48 8d 35 75 f5 ff ff 	lea    -0xa8b(%rip),%rsi        # 24c6 <sigalrm_handler>
    2f51:	bf 0e 00 00 00       	mov    $0xe,%edi
    2f56:	e8 3d e0 ff ff       	callq  f98 <_init+0x98>
    2f5b:	89 df                	mov    %ebx,%edi
    2f5d:	e8 1e e0 ff ff       	callq  f80 <_init+0x80>
    2f62:	5b                   	pop    %rbx
    2f63:	f3 c3                	repz retq 
    2f65:	bb 00 00 00 00       	mov    $0x0,%ebx
    2f6a:	eb de                	jmp    2f4a <init_timeout+0xb>

0000000000002f6c <init_driver>:
    2f6c:	41 54                	push   %r12
    2f6e:	55                   	push   %rbp
    2f6f:	53                   	push   %rbx
    2f70:	48 83 ec 20          	sub    $0x20,%rsp
    2f74:	48 89 fd             	mov    %rdi,%rbp
    2f77:	64 48 8b 04 25 28 00 	mov    %fs:0x28,%rax
    2f7e:	00 00 
    2f80:	48 89 44 24 18       	mov    %rax,0x18(%rsp)
    2f85:	31 c0                	xor    %eax,%eax
    2f87:	be 01 00 00 00       	mov    $0x1,%esi
    2f8c:	bf 0d 00 00 00       	mov    $0xd,%edi
    2f91:	e8 02 e0 ff ff       	callq  f98 <_init+0x98>
    2f96:	be 01 00 00 00       	mov    $0x1,%esi
    2f9b:	bf 1d 00 00 00       	mov    $0x1d,%edi
    2fa0:	e8 f3 df ff ff       	callq  f98 <_init+0x98>
    2fa5:	be 01 00 00 00       	mov    $0x1,%esi
    2faa:	bf 1d 00 00 00       	mov    $0x1d,%edi
    2faf:	e8 e4 df ff ff       	callq  f98 <_init+0x98>
    2fb4:	ba 00 00 00 00       	mov    $0x0,%edx
    2fb9:	be 01 00 00 00       	mov    $0x1,%esi
    2fbe:	bf 02 00 00 00       	mov    $0x2,%edi
    2fc3:	e8 70 e0 ff ff       	callq  1038 <_init+0x138>
    2fc8:	85 c0                	test   %eax,%eax
    2fca:	0f 88 99 00 00 00    	js     3069 <init_driver+0xfd>
    2fd0:	89 c3                	mov    %eax,%ebx
    2fd2:	48 8d 3d 61 06 00 00 	lea    0x661(%rip),%rdi        # 363a <_IO_stdin_used+0x37a>
    2fd9:	e8 c2 df ff ff       	callq  fa0 <_init+0xa0>
    2fde:	48 85 c0             	test   %rax,%rax
    2fe1:	0f 84 ce 00 00 00    	je     30b5 <init_driver+0x149>
    2fe7:	48 c7 04 24 00 00 00 	movq   $0x0,(%rsp)
    2fee:	00 
    2fef:	48 c7 44 24 08 00 00 	movq   $0x0,0x8(%rsp)
    2ff6:	00 00 
    2ff8:	66 c7 04 24 02 00    	movw   $0x2,(%rsp)
    2ffe:	48 63 50 14          	movslq 0x14(%rax),%rdx
    3002:	48 8b 40 18          	mov    0x18(%rax),%rax
    3006:	48 8b 30             	mov    (%rax),%rsi
    3009:	48 8d 7c 24 04       	lea    0x4(%rsp),%rdi
    300e:	b9 0c 00 00 00       	mov    $0xc,%ecx
    3013:	e8 90 df ff ff       	callq  fa8 <_init+0xa8>
    3018:	66 c7 44 24 02 3c 9a 	movw   $0x9a3c,0x2(%rsp)
    301f:	ba 10 00 00 00       	mov    $0x10,%edx
    3024:	48 89 e6             	mov    %rsp,%rsi
    3027:	89 df                	mov    %ebx,%edi
    3029:	e8 ea df ff ff       	callq  1018 <_init+0x118>
    302e:	85 c0                	test   %eax,%eax
    3030:	0f 88 e7 00 00 00    	js     311d <init_driver+0x1b1>
    3036:	89 df                	mov    %ebx,%edi
    3038:	e8 4b df ff ff       	callq  f88 <_init+0x88>
    303d:	66 c7 45 00 4f 4b    	movw   $0x4b4f,0x0(%rbp)
    3043:	c6 45 02 00          	movb   $0x0,0x2(%rbp)
    3047:	b8 00 00 00 00       	mov    $0x0,%eax
    304c:	48 8b 4c 24 18       	mov    0x18(%rsp),%rcx
    3051:	64 48 33 0c 25 28 00 	xor    %fs:0x28,%rcx
    3058:	00 00 
    305a:	0f 85 10 01 00 00    	jne    3170 <init_driver+0x204>
    3060:	48 83 c4 20          	add    $0x20,%rsp
    3064:	5b                   	pop    %rbx
    3065:	5d                   	pop    %rbp
    3066:	41 5c                	pop    %r12
    3068:	c3                   	retq   
    3069:	48 b8 45 72 72 6f 72 	movabs $0x43203a726f727245,%rax
    3070:	3a 20 43 
    3073:	48 89 45 00          	mov    %rax,0x0(%rbp)
    3077:	48 b8 6c 69 65 6e 74 	movabs $0x6e7520746e65696c,%rax
    307e:	20 75 6e 
    3081:	48 89 45 08          	mov    %rax,0x8(%rbp)
    3085:	48 b8 61 62 6c 65 20 	movabs $0x206f7420656c6261,%rax
    308c:	74 6f 20 
    308f:	48 89 45 10          	mov    %rax,0x10(%rbp)
    3093:	48 b8 63 72 65 61 74 	movabs $0x7320657461657263,%rax
    309a:	65 20 73 
    309d:	48 89 45 18          	mov    %rax,0x18(%rbp)
    30a1:	c7 45 20 6f 63 6b 65 	movl   $0x656b636f,0x20(%rbp)
    30a8:	66 c7 45 24 74 00    	movw   $0x74,0x24(%rbp)
    30ae:	b8 ff ff ff ff       	mov    $0xffffffff,%eax
    30b3:	eb 97                	jmp    304c <init_driver+0xe0>
    30b5:	48 b8 45 72 72 6f 72 	movabs $0x44203a726f727245,%rax
    30bc:	3a 20 44 
    30bf:	48 89 45 00          	mov    %rax,0x0(%rbp)
    30c3:	48 b8 4e 53 20 69 73 	movabs $0x6e7520736920534e,%rax
    30ca:	20 75 6e 
    30cd:	48 89 45 08          	mov    %rax,0x8(%rbp)
    30d1:	48 b8 61 62 6c 65 20 	movabs $0x206f7420656c6261,%rax
    30d8:	74 6f 20 
    30db:	48 89 45 10          	mov    %rax,0x10(%rbp)
    30df:	48 b8 72 65 73 6f 6c 	movabs $0x2065766c6f736572,%rax
    30e6:	76 65 20 
    30e9:	48 89 45 18          	mov    %rax,0x18(%rbp)
    30ed:	48 b8 73 65 72 76 65 	movabs $0x6120726576726573,%rax
    30f4:	72 20 61 
    30f7:	48 89 45 20          	mov    %rax,0x20(%rbp)
    30fb:	c7 45 28 64 64 72 65 	movl   $0x65726464,0x28(%rbp)
    3102:	66 c7 45 2c 73 73    	movw   $0x7373,0x2c(%rbp)
    3108:	c6 45 2e 00          	movb   $0x0,0x2e(%rbp)
    310c:	89 df                	mov    %ebx,%edi
    310e:	e8 75 de ff ff       	callq  f88 <_init+0x88>
    3113:	b8 ff ff ff ff       	mov    $0xffffffff,%eax
    3118:	e9 2f ff ff ff       	jmpq   304c <init_driver+0xe0>
    311d:	48 b8 45 72 72 6f 72 	movabs $0x55203a726f727245,%rax
    3124:	3a 20 55 
    3127:	48 89 45 00          	mov    %rax,0x0(%rbp)
    312b:	48 b8 6e 61 62 6c 65 	movabs $0x6f7420656c62616e,%rax
    3132:	20 74 6f 
    3135:	48 89 45 08          	mov    %rax,0x8(%rbp)
    3139:	48 b8 20 63 6f 6e 6e 	movabs $0x7463656e6e6f6320,%rax
    3140:	65 63 74 
    3143:	48 89 45 10          	mov    %rax,0x10(%rbp)
    3147:	48 b8 20 74 6f 20 73 	movabs $0x76726573206f7420,%rax
    314e:	65 72 76 
    3151:	48 89 45 18          	mov    %rax,0x18(%rbp)
    3155:	66 c7 45 20 65 72    	movw   $0x7265,0x20(%rbp)
    315b:	c6 45 22 00          	movb   $0x0,0x22(%rbp)
    315f:	89 df                	mov    %ebx,%edi
    3161:	e8 22 de ff ff       	callq  f88 <_init+0x88>
    3166:	b8 ff ff ff ff       	mov    $0xffffffff,%eax
    316b:	e9 dc fe ff ff       	jmpq   304c <init_driver+0xe0>
    3170:	e8 f3 dd ff ff       	callq  f68 <_init+0x68>

0000000000003175 <driver_post>:
    3175:	53                   	push   %rbx
    3176:	4c 89 cb             	mov    %r9,%rbx
    3179:	45 85 c0             	test   %r8d,%r8d
    317c:	75 18                	jne    3196 <driver_post+0x21>
    317e:	48 85 ff             	test   %rdi,%rdi
    3181:	74 05                	je     3188 <driver_post+0x13>
    3183:	80 3f 00             	cmpb   $0x0,(%rdi)
    3186:	75 37                	jne    31bf <driver_post+0x4a>
    3188:	66 c7 03 4f 4b       	movw   $0x4b4f,(%rbx)
    318d:	c6 43 02 00          	movb   $0x0,0x2(%rbx)
    3191:	44 89 c0             	mov    %r8d,%eax
    3194:	5b                   	pop    %rbx
    3195:	c3                   	retq   
    3196:	48 89 ca             	mov    %rcx,%rdx
    3199:	48 8d 35 65 09 00 00 	lea    0x965(%rip),%rsi        # 3b05 <trans_char+0xc5>
    31a0:	bf 01 00 00 00       	mov    $0x1,%edi
    31a5:	b8 00 00 00 00       	mov    $0x0,%eax
    31aa:	e8 39 de ff ff       	callq  fe8 <_init+0xe8>
    31af:	66 c7 03 4f 4b       	movw   $0x4b4f,(%rbx)
    31b4:	c6 43 02 00          	movb   $0x0,0x2(%rbx)
    31b8:	b8 00 00 00 00       	mov    $0x0,%eax
    31bd:	eb d5                	jmp    3194 <driver_post+0x1f>
    31bf:	48 83 ec 08          	sub    $0x8,%rsp
    31c3:	41 51                	push   %r9
    31c5:	49 89 c9             	mov    %rcx,%r9
    31c8:	49 89 d0             	mov    %rdx,%r8
    31cb:	48 89 f9             	mov    %rdi,%rcx
    31ce:	48 89 f2             	mov    %rsi,%rdx
    31d1:	be 9a 3c 00 00       	mov    $0x3c9a,%esi
    31d6:	48 8d 3d 5d 04 00 00 	lea    0x45d(%rip),%rdi        # 363a <_IO_stdin_used+0x37a>
    31dd:	e8 b1 f5 ff ff       	callq  2793 <submitr>
    31e2:	48 83 c4 10          	add    $0x10,%rsp
    31e6:	eb ac                	jmp    3194 <driver_post+0x1f>

00000000000031e8 <check>:
    31e8:	89 f8                	mov    %edi,%eax
    31ea:	c1 e8 1c             	shr    $0x1c,%eax
    31ed:	85 c0                	test   %eax,%eax
    31ef:	74 1d                	je     320e <check+0x26>
    31f1:	b9 00 00 00 00       	mov    $0x0,%ecx
    31f6:	83 f9 1f             	cmp    $0x1f,%ecx
    31f9:	7f 0d                	jg     3208 <check+0x20>
    31fb:	89 f8                	mov    %edi,%eax
    31fd:	d3 e8                	shr    %cl,%eax
    31ff:	3c 0a                	cmp    $0xa,%al
    3201:	74 11                	je     3214 <check+0x2c>
    3203:	83 c1 08             	add    $0x8,%ecx
    3206:	eb ee                	jmp    31f6 <check+0xe>
    3208:	b8 01 00 00 00       	mov    $0x1,%eax
    320d:	c3                   	retq   
    320e:	b8 00 00 00 00       	mov    $0x0,%eax
    3213:	c3                   	retq   
    3214:	b8 00 00 00 00       	mov    $0x0,%eax
    3219:	c3                   	retq   

000000000000321a <gencookie>:
    321a:	53                   	push   %rbx
    321b:	83 c7 01             	add    $0x1,%edi
    321e:	e8 1d dd ff ff       	callq  f40 <_init+0x40>
    3223:	e8 a0 dd ff ff       	callq  fc8 <_init+0xc8>
    3228:	89 c3                	mov    %eax,%ebx
    322a:	89 c7                	mov    %eax,%edi
    322c:	e8 b7 ff ff ff       	callq  31e8 <check>
    3231:	85 c0                	test   %eax,%eax
    3233:	74 ee                	je     3223 <gencookie+0x9>
    3235:	89 d8                	mov    %ebx,%eax
    3237:	5b                   	pop    %rbx
    3238:	c3                   	retq   
    3239:	0f 1f 80 00 00 00 00 	nopl   0x0(%rax)

0000000000003240 <__libc_csu_init>:
    3240:	41 57                	push   %r15
    3242:	41 56                	push   %r14
    3244:	41 89 ff             	mov    %edi,%r15d
    3247:	41 55                	push   %r13
    3249:	41 54                	push   %r12
    324b:	4c 8d 25 86 1a 20 00 	lea    0x201a86(%rip),%r12        # 204cd8 <__frame_dummy_init_array_entry>
    3252:	55                   	push   %rbp
    3253:	48 8d 2d 86 1a 20 00 	lea    0x201a86(%rip),%rbp        # 204ce0 <__init_array_end>
    325a:	53                   	push   %rbx
    325b:	49 89 f6             	mov    %rsi,%r14
    325e:	49 89 d5             	mov    %rdx,%r13
    3261:	4c 29 e5             	sub    %r12,%rbp
    3264:	48 83 ec 08          	sub    $0x8,%rsp
    3268:	48 c1 fd 03          	sar    $0x3,%rbp
    326c:	e8 8f dc ff ff       	callq  f00 <_init>
    3271:	48 85 ed             	test   %rbp,%rbp
    3274:	74 20                	je     3296 <__libc_csu_init+0x56>
    3276:	31 db                	xor    %ebx,%ebx
    3278:	0f 1f 84 00 00 00 00 	nopl   0x0(%rax,%rax,1)
    327f:	00 
    3280:	4c 89 ea             	mov    %r13,%rdx
    3283:	4c 89 f6             	mov    %r14,%rsi
    3286:	44 89 ff             	mov    %r15d,%edi
    3289:	41 ff 14 dc          	callq  *(%r12,%rbx,8)
    328d:	48 83 c3 01          	add    $0x1,%rbx
    3291:	48 39 dd             	cmp    %rbx,%rbp
    3294:	75 ea                	jne    3280 <__libc_csu_init+0x40>
    3296:	48 83 c4 08          	add    $0x8,%rsp
    329a:	5b                   	pop    %rbx
    329b:	5d                   	pop    %rbp
    329c:	41 5c                	pop    %r12
    329e:	41 5d                	pop    %r13
    32a0:	41 5e                	pop    %r14
    32a2:	41 5f                	pop    %r15
    32a4:	c3                   	retq   
    32a5:	90                   	nop
    32a6:	66 2e 0f 1f 84 00 00 	nopw   %cs:0x0(%rax,%rax,1)
    32ad:	00 00 00 

00000000000032b0 <__libc_csu_fini>:
    32b0:	f3 c3                	repz retq 

Disassembly of section .fini:

00000000000032b4 <_fini>:
    32b4:	48 83 ec 08          	sub    $0x8,%rsp
    32b8:	48 83 c4 08          	add    $0x8,%rsp
    32bc:	c3                   	retq   
