
ctarget:     file format elf64-x86-64


Disassembly of section .init:

0000000000000f00 <_init>:
 f00:	48 83 ec 08          	sub    $0x8,%rsp
 f04:	48 8b 05 4d 40 20 00 	mov    0x20404d(%rip),%rax        # 204f58 <_GLOBAL_OFFSET_TABLE_+0xa8>
 f0b:	48 85 c0             	test   %rax,%rax
 f0e:	74 02                	je     f12 <_init+0x12>
 f10:	ff d0                	callq  *%rax
 f12:	48 83 c4 08          	add    $0x8,%rsp
 f16:	c3                   	retq   

Disassembly of section .plt:

0000000000000f20 <.plt>:
 f20:	ff 35 92 3f 20 00    	pushq  0x203f92(%rip)        # 204eb8 <_GLOBAL_OFFSET_TABLE_+0x8>
 f26:	ff 25 94 3f 20 00    	jmpq   *0x203f94(%rip)        # 204ec0 <_GLOBAL_OFFSET_TABLE_+0x10>
 f2c:	0f 1f 40 00          	nopl   0x0(%rax)

Disassembly of section .plt.got:

0000000000000f30 <.plt.got>:
     f30:	ff 25 92 3f 20 00    	jmpq   *0x203f92(%rip)        # 204ec8 <_GLOBAL_OFFSET_TABLE_+0x18>
     f36:	66 90                	xchg   %ax,%ax
     f38:	ff 25 92 3f 20 00    	jmpq   *0x203f92(%rip)        # 204ed0 <_GLOBAL_OFFSET_TABLE_+0x20>
     f3e:	66 90                	xchg   %ax,%ax
     f40:	ff 25 92 3f 20 00    	jmpq   *0x203f92(%rip)        # 204ed8 <_GLOBAL_OFFSET_TABLE_+0x28>
     f46:	66 90                	xchg   %ax,%ax
     f48:	ff 25 92 3f 20 00    	jmpq   *0x203f92(%rip)        # 204ee0 <_GLOBAL_OFFSET_TABLE_+0x30>
     f4e:	66 90                	xchg   %ax,%ax
     f50:	ff 25 9a 3f 20 00    	jmpq   *0x203f9a(%rip)        # 204ef0 <_GLOBAL_OFFSET_TABLE_+0x40>
     f56:	66 90                	xchg   %ax,%ax
     f58:	ff 25 9a 3f 20 00    	jmpq   *0x203f9a(%rip)        # 204ef8 <_GLOBAL_OFFSET_TABLE_+0x48>
     f5e:	66 90                	xchg   %ax,%ax
     f60:	ff 25 9a 3f 20 00    	jmpq   *0x203f9a(%rip)        # 204f00 <_GLOBAL_OFFSET_TABLE_+0x50>
     f66:	66 90                	xchg   %ax,%ax
     f68:	ff 25 9a 3f 20 00    	jmpq   *0x203f9a(%rip)        # 204f08 <_GLOBAL_OFFSET_TABLE_+0x58>
     f6e:	66 90                	xchg   %ax,%ax
     f70:	ff 25 9a 3f 20 00    	jmpq   *0x203f9a(%rip)        # 204f10 <_GLOBAL_OFFSET_TABLE_+0x60>
     f76:	66 90                	xchg   %ax,%ax
     f78:	ff 25 9a 3f 20 00    	jmpq   *0x203f9a(%rip)        # 204f18 <_GLOBAL_OFFSET_TABLE_+0x68>
     f7e:	66 90                	xchg   %ax,%ax
     f80:	ff 25 9a 3f 20 00    	jmpq   *0x203f9a(%rip)        # 204f20 <_GLOBAL_OFFSET_TABLE_+0x70>
     f86:	66 90                	xchg   %ax,%ax
     f88:	ff 25 9a 3f 20 00    	jmpq   *0x203f9a(%rip)        # 204f28 <_GLOBAL_OFFSET_TABLE_+0x78>
     f8e:	66 90                	xchg   %ax,%ax
     f90:	ff 25 9a 3f 20 00    	jmpq   *0x203f9a(%rip)        # 204f30 <_GLOBAL_OFFSET_TABLE_+0x80>
     f96:	66 90                	xchg   %ax,%ax
     f98:	ff 25 a2 3f 20 00    	jmpq   *0x203fa2(%rip)        # 204f40 <_GLOBAL_OFFSET_TABLE_+0x90>
     f9e:	66 90                	xchg   %ax,%ax
     fa0:	ff 25 a2 3f 20 00    	jmpq   *0x203fa2(%rip)        # 204f48 <_GLOBAL_OFFSET_TABLE_+0x98>
     fa6:	66 90                	xchg   %ax,%ax
     fa8:	ff 25 a2 3f 20 00    	jmpq   *0x203fa2(%rip)        # 204f50 <_GLOBAL_OFFSET_TABLE_+0xa0>
     fae:	66 90                	xchg   %ax,%ax
     fb0:	ff 25 aa 3f 20 00    	jmpq   *0x203faa(%rip)        # 204f60 <_GLOBAL_OFFSET_TABLE_+0xb0>
     fb6:	66 90                	xchg   %ax,%ax
     fb8:	ff 25 aa 3f 20 00    	jmpq   *0x203faa(%rip)        # 204f68 <_GLOBAL_OFFSET_TABLE_+0xb8>
     fbe:	66 90                	xchg   %ax,%ax
     fc0:	ff 25 aa 3f 20 00    	jmpq   *0x203faa(%rip)        # 204f70 <_GLOBAL_OFFSET_TABLE_+0xc0>
     fc6:	66 90                	xchg   %ax,%ax
     fc8:	ff 25 aa 3f 20 00    	jmpq   *0x203faa(%rip)        # 204f78 <_GLOBAL_OFFSET_TABLE_+0xc8>
     fce:	66 90                	xchg   %ax,%ax
     fd0:	ff 25 aa 3f 20 00    	jmpq   *0x203faa(%rip)        # 204f80 <_GLOBAL_OFFSET_TABLE_+0xd0>
     fd6:	66 90                	xchg   %ax,%ax
     fd8:	ff 25 aa 3f 20 00    	jmpq   *0x203faa(%rip)        # 204f88 <_GLOBAL_OFFSET_TABLE_+0xd8>
     fde:	66 90                	xchg   %ax,%ax
     fe0:	ff 25 aa 3f 20 00    	jmpq   *0x203faa(%rip)        # 204f90 <_GLOBAL_OFFSET_TABLE_+0xe0>
     fe6:	66 90                	xchg   %ax,%ax
     fe8:	ff 25 aa 3f 20 00    	jmpq   *0x203faa(%rip)        # 204f98 <_GLOBAL_OFFSET_TABLE_+0xe8>
     fee:	66 90                	xchg   %ax,%ax
     ff0:	ff 25 aa 3f 20 00    	jmpq   *0x203faa(%rip)        # 204fa0 <_GLOBAL_OFFSET_TABLE_+0xf0>
     ff6:	66 90                	xchg   %ax,%ax
     ff8:	ff 25 b2 3f 20 00    	jmpq   *0x203fb2(%rip)        # 204fb0 <_GLOBAL_OFFSET_TABLE_+0x100>
     ffe:	66 90                	xchg   %ax,%ax
    1000:	ff 25 b2 3f 20 00    	jmpq   *0x203fb2(%rip)        # 204fb8 <_GLOBAL_OFFSET_TABLE_+0x108>
    1006:	66 90                	xchg   %ax,%ax
    1008:	ff 25 b2 3f 20 00    	jmpq   *0x203fb2(%rip)        # 204fc0 <_GLOBAL_OFFSET_TABLE_+0x110>
    100e:	66 90                	xchg   %ax,%ax
    1010:	ff 25 b2 3f 20 00    	jmpq   *0x203fb2(%rip)        # 204fc8 <_GLOBAL_OFFSET_TABLE_+0x118>
    1016:	66 90                	xchg   %ax,%ax
    1018:	ff 25 b2 3f 20 00    	jmpq   *0x203fb2(%rip)        # 204fd0 <_GLOBAL_OFFSET_TABLE_+0x120>
    101e:	66 90                	xchg   %ax,%ax
    1020:	ff 25 b2 3f 20 00    	jmpq   *0x203fb2(%rip)        # 204fd8 <_GLOBAL_OFFSET_TABLE_+0x128>
    1026:	66 90                	xchg   %ax,%ax
    1028:	ff 25 ba 3f 20 00    	jmpq   *0x203fba(%rip)        # 204fe8 <_GLOBAL_OFFSET_TABLE_+0x138>
    102e:	66 90                	xchg   %ax,%ax
    1030:	ff 25 ba 3f 20 00    	jmpq   *0x203fba(%rip)        # 204ff0 <_GLOBAL_OFFSET_TABLE_+0x140>
    1036:	66 90                	xchg   %ax,%ax
    1038:	ff 25 ba 3f 20 00    	jmpq   *0x203fba(%rip)        # 204ff8 <_GLOBAL_OFFSET_TABLE_+0x148>
    103e:	66 90                	xchg   %ax,%ax

Disassembly of section .text:

0000000000001040 <_start>:
    1040:	31 ed                	xor    %ebp,%ebp
    1042:	49 89 d1             	mov    %rdx,%r9
    1045:	5e                   	pop    %rsi
    1046:	48 89 e2             	mov    %rsp,%rdx
    1049:	48 83 e4 f0          	and    $0xfffffffffffffff0,%rsp
    104d:	50                   	push   %rax
    104e:	54                   	push   %rsp
    104f:	4c 8d 05 2a 21 00 00 	lea    0x212a(%rip),%r8        # 3180 <__libc_csu_fini>
    1056:	48 8d 0d b3 20 00 00 	lea    0x20b3(%rip),%rcx        # 3110 <__libc_csu_init>
    105d:	48 8d 3d 33 03 00 00 	lea    0x333(%rip),%rdi        # 1397 <main>
    1064:	ff 15 ce 3e 20 00    	callq  *0x203ece(%rip)        # 204f38 <_GLOBAL_OFFSET_TABLE_+0x88>
    106a:	f4                   	hlt    
    106b:	0f 1f 44 00 00       	nopl   0x0(%rax,%rax,1)

0000000000001070 <deregister_tm_clones>:
    1070:	48 8d 3d f9 42 20 00 	lea    0x2042f9(%rip),%rdi        # 205370 <__TMC_END__>
    1077:	48 8d 05 f9 42 20 00 	lea    0x2042f9(%rip),%rax        # 205377 <__TMC_END__+0x7>
    107e:	55                   	push   %rbp
    107f:	48 29 f8             	sub    %rdi,%rax
    1082:	48 89 e5             	mov    %rsp,%rbp
    1085:	48 83 f8 0e          	cmp    $0xe,%rax
    1089:	76 15                	jbe    10a0 <deregister_tm_clones+0x30>
    108b:	48 8b 05 56 3e 20 00 	mov    0x203e56(%rip),%rax        # 204ee8 <_GLOBAL_OFFSET_TABLE_+0x38>
    1092:	48 85 c0             	test   %rax,%rax
    1095:	74 09                	je     10a0 <deregister_tm_clones+0x30>
    1097:	5d                   	pop    %rbp
    1098:	ff e0                	jmpq   *%rax
    109a:	66 0f 1f 44 00 00    	nopw   0x0(%rax,%rax,1)
    10a0:	5d                   	pop    %rbp
    10a1:	c3                   	retq   
    10a2:	0f 1f 40 00          	nopl   0x0(%rax)
    10a6:	66 2e 0f 1f 84 00 00 	nopw   %cs:0x0(%rax,%rax,1)
    10ad:	00 00 00 

00000000000010b0 <register_tm_clones>:
    10b0:	48 8d 3d b9 42 20 00 	lea    0x2042b9(%rip),%rdi        # 205370 <__TMC_END__>
    10b7:	48 8d 35 b2 42 20 00 	lea    0x2042b2(%rip),%rsi        # 205370 <__TMC_END__>
    10be:	55                   	push   %rbp
    10bf:	48 29 fe             	sub    %rdi,%rsi
    10c2:	48 89 e5             	mov    %rsp,%rbp
    10c5:	48 c1 fe 03          	sar    $0x3,%rsi
    10c9:	48 89 f0             	mov    %rsi,%rax
    10cc:	48 c1 e8 3f          	shr    $0x3f,%rax
    10d0:	48 01 c6             	add    %rax,%rsi
    10d3:	48 d1 fe             	sar    %rsi
    10d6:	74 18                	je     10f0 <register_tm_clones+0x40>
    10d8:	48 8b 05 01 3f 20 00 	mov    0x203f01(%rip),%rax        # 204fe0 <_GLOBAL_OFFSET_TABLE_+0x130>
    10df:	48 85 c0             	test   %rax,%rax
    10e2:	74 0c                	je     10f0 <register_tm_clones+0x40>
    10e4:	5d                   	pop    %rbp
    10e5:	ff e0                	jmpq   *%rax
    10e7:	66 0f 1f 84 00 00 00 	nopw   0x0(%rax,%rax,1)
    10ee:	00 00 
    10f0:	5d                   	pop    %rbp
    10f1:	c3                   	retq   
    10f2:	0f 1f 40 00          	nopl   0x0(%rax)
    10f6:	66 2e 0f 1f 84 00 00 	nopw   %cs:0x0(%rax,%rax,1)
    10fd:	00 00 00 

0000000000001100 <__do_global_dtors_aux>:
    1100:	80 3d a1 42 20 00 00 	cmpb   $0x0,0x2042a1(%rip)        # 2053a8 <completed.7558>
    1107:	75 27                	jne    1130 <__do_global_dtors_aux+0x30>
    1109:	48 83 3d d7 3e 20 00 	cmpq   $0x0,0x203ed7(%rip)        # 204fe8 <_GLOBAL_OFFSET_TABLE_+0x138>
    1110:	00 
    1111:	55                   	push   %rbp
    1112:	48 89 e5             	mov    %rsp,%rbp
    1115:	74 0c                	je     1123 <__do_global_dtors_aux+0x23>
    1117:	48 8b 3d ea 3e 20 00 	mov    0x203eea(%rip),%rdi        # 205008 <__dso_handle>
    111e:	e8 05 ff ff ff       	callq  1028 <_init+0x128>
    1123:	e8 48 ff ff ff       	callq  1070 <deregister_tm_clones>
    1128:	5d                   	pop    %rbp
    1129:	c6 05 78 42 20 00 01 	movb   $0x1,0x204278(%rip)        # 2053a8 <completed.7558>
    1130:	f3 c3                	repz retq 
    1132:	0f 1f 40 00          	nopl   0x0(%rax)
    1136:	66 2e 0f 1f 84 00 00 	nopw   %cs:0x0(%rax,%rax,1)
    113d:	00 00 00 

0000000000001140 <frame_dummy>:
    1140:	48 8d 3d a1 3b 20 00 	lea    0x203ba1(%rip),%rdi        # 204ce8 <__JCR_END__>
    1147:	48 83 3f 00          	cmpq   $0x0,(%rdi)
    114b:	75 0b                	jne    1158 <frame_dummy+0x18>
    114d:	e9 5e ff ff ff       	jmpq   10b0 <register_tm_clones>
    1152:	66 0f 1f 44 00 00    	nopw   0x0(%rax,%rax,1)
    1158:	48 8b 05 49 3e 20 00 	mov    0x203e49(%rip),%rax        # 204fa8 <_GLOBAL_OFFSET_TABLE_+0xf8>
    115f:	48 85 c0             	test   %rax,%rax
    1162:	74 e9                	je     114d <frame_dummy+0xd>
    1164:	55                   	push   %rbp
    1165:	48 89 e5             	mov    %rsp,%rbp
    1168:	ff d0                	callq  *%rax
    116a:	5d                   	pop    %rbp
    116b:	e9 40 ff ff ff       	jmpq   10b0 <register_tm_clones>

0000000000001170 <usage>:
    1170:	48 83 ec 08          	sub    $0x8,%rsp
    1174:	48 89 fa             	mov    %rdi,%rdx
    1177:	83 3d 6a 42 20 00 00 	cmpl   $0x0,0x20426a(%rip)        # 2053e8 <is_checker>
    117e:	74 50                	je     11d0 <usage+0x60>
    1180:	48 8d 35 11 20 00 00 	lea    0x2011(%rip),%rsi        # 3198 <_IO_stdin_used+0x8>
    1187:	bf 01 00 00 00       	mov    $0x1,%edi
    118c:	b8 00 00 00 00       	mov    $0x0,%eax
    1191:	e8 52 fe ff ff       	callq  fe8 <_init+0xe8>
    1196:	48 8d 3d 33 20 00 00 	lea    0x2033(%rip),%rdi        # 31d0 <_IO_stdin_used+0x40>
    119d:	e8 b6 fd ff ff       	callq  f58 <_init+0x58>
    11a2:	48 8d 3d 9f 21 00 00 	lea    0x219f(%rip),%rdi        # 3348 <_IO_stdin_used+0x1b8>
    11a9:	e8 aa fd ff ff       	callq  f58 <_init+0x58>
    11ae:	48 8d 3d 43 20 00 00 	lea    0x2043(%rip),%rdi        # 31f8 <_IO_stdin_used+0x68>
    11b5:	e8 9e fd ff ff       	callq  f58 <_init+0x58>
    11ba:	48 8d 3d a1 21 00 00 	lea    0x21a1(%rip),%rdi        # 3362 <_IO_stdin_used+0x1d2>
    11c1:	e8 92 fd ff ff       	callq  f58 <_init+0x58>
    11c6:	bf 00 00 00 00       	mov    $0x0,%edi
    11cb:	e8 40 fe ff ff       	callq  1010 <_init+0x110>
    11d0:	48 8d 35 a7 21 00 00 	lea    0x21a7(%rip),%rsi        # 337e <_IO_stdin_used+0x1ee>
    11d7:	bf 01 00 00 00       	mov    $0x1,%edi
    11dc:	b8 00 00 00 00       	mov    $0x0,%eax
    11e1:	e8 02 fe ff ff       	callq  fe8 <_init+0xe8>
    11e6:	48 8d 3d 33 20 00 00 	lea    0x2033(%rip),%rdi        # 3220 <_IO_stdin_used+0x90>
    11ed:	e8 66 fd ff ff       	callq  f58 <_init+0x58>
    11f2:	48 8d 3d 4f 20 00 00 	lea    0x204f(%rip),%rdi        # 3248 <_IO_stdin_used+0xb8>
    11f9:	e8 5a fd ff ff       	callq  f58 <_init+0x58>
    11fe:	48 8d 3d 97 21 00 00 	lea    0x2197(%rip),%rdi        # 339c <_IO_stdin_used+0x20c>
    1205:	e8 4e fd ff ff       	callq  f58 <_init+0x58>
    120a:	eb ba                	jmp    11c6 <usage+0x56>

000000000000120c <initialize_target>:
    120c:	55                   	push   %rbp
    120d:	53                   	push   %rbx
    120e:	48 81 ec 18 21 00 00 	sub    $0x2118,%rsp
    1215:	89 f5                	mov    %esi,%ebp
    1217:	64 48 8b 04 25 28 00 	mov    %fs:0x28,%rax
    121e:	00 00 
    1220:	48 89 84 24 08 21 00 	mov    %rax,0x2108(%rsp)
    1227:	00 
    1228:	31 c0                	xor    %eax,%eax
    122a:	89 3d a8 41 20 00    	mov    %edi,0x2041a8(%rip)        # 2053d8 <check_level>
    1230:	8b 3d da 3d 20 00    	mov    0x203dda(%rip),%edi        # 205010 <target_id>
    1236:	e8 b6 1e 00 00       	callq  30f1 <gencookie>
    123b:	89 05 a3 41 20 00    	mov    %eax,0x2041a3(%rip)        # 2053e4 <cookie>
    1241:	89 c7                	mov    %eax,%edi
    1243:	e8 a9 1e 00 00       	callq  30f1 <gencookie>
    1248:	89 05 92 41 20 00    	mov    %eax,0x204192(%rip)        # 2053e0 <authkey>
    124e:	8b 05 bc 3d 20 00    	mov    0x203dbc(%rip),%eax        # 205010 <target_id>
    1254:	8d 78 01             	lea    0x1(%rax),%edi
    1257:	e8 e4 fc ff ff       	callq  f40 <_init+0x40>
    125c:	e8 67 fd ff ff       	callq  fc8 <_init+0xc8>
    1261:	89 c7                	mov    %eax,%edi
    1263:	e8 2a 03 00 00       	callq  1592 <scramble>
    1268:	89 c3                	mov    %eax,%ebx
    126a:	85 ed                	test   %ebp,%ebp
    126c:	75 54                	jne    12c2 <initialize_target+0xb6>
    126e:	b8 00 00 00 00       	mov    $0x0,%eax
    1273:	01 d8                	add    %ebx,%eax
    1275:	0f b7 c0             	movzwl %ax,%eax
    1278:	8d 04 c5 00 01 00 00 	lea    0x100(,%rax,8),%eax
    127f:	89 c0                	mov    %eax,%eax
    1281:	48 89 05 d8 40 20 00 	mov    %rax,0x2040d8(%rip)        # 205360 <buf_offset>
    1288:	c6 05 79 4d 20 00 63 	movb   $0x63,0x204d79(%rip)        # 206008 <target_prefix>
    128f:	83 3d d2 40 20 00 00 	cmpl   $0x0,0x2040d2(%rip)        # 205368 <notify>
    1296:	74 09                	je     12a1 <initialize_target+0x95>
    1298:	83 3d 49 41 20 00 00 	cmpl   $0x0,0x204149(%rip)        # 2053e8 <is_checker>
    129f:	74 39                	je     12da <initialize_target+0xce>
    12a1:	48 8b 84 24 08 21 00 	mov    0x2108(%rsp),%rax
    12a8:	00 
    12a9:	64 48 33 04 25 28 00 	xor    %fs:0x28,%rax
    12b0:	00 00 
    12b2:	0f 85 da 00 00 00    	jne    1392 <initialize_target+0x186>
    12b8:	48 81 c4 18 21 00 00 	add    $0x2118,%rsp
    12bf:	5b                   	pop    %rbx
    12c0:	5d                   	pop    %rbp
    12c1:	c3                   	retq   
    12c2:	bf 00 00 00 00       	mov    $0x0,%edi
    12c7:	e8 f4 fc ff ff       	callq  fc0 <_init+0xc0>
    12cc:	89 c7                	mov    %eax,%edi
    12ce:	e8 6d fc ff ff       	callq  f40 <_init+0x40>
    12d3:	e8 f0 fc ff ff       	callq  fc8 <_init+0xc8>
    12d8:	eb 99                	jmp    1273 <initialize_target+0x67>
    12da:	48 89 e7             	mov    %rsp,%rdi
    12dd:	be 00 01 00 00       	mov    $0x100,%esi
    12e2:	e8 21 fd ff ff       	callq  1008 <_init+0x108>
    12e7:	89 c5                	mov    %eax,%ebp
    12e9:	85 c0                	test   %eax,%eax
    12eb:	75 26                	jne    1313 <initialize_target+0x107>
    12ed:	89 c3                	mov    %eax,%ebx
    12ef:	48 63 c3             	movslq %ebx,%rax
    12f2:	48 8d 15 47 3d 20 00 	lea    0x203d47(%rip),%rdx        # 205040 <host_table>
    12f9:	48 8b 3c c2          	mov    (%rdx,%rax,8),%rdi
    12fd:	48 85 ff             	test   %rdi,%rdi
    1300:	74 2c                	je     132e <initialize_target+0x122>
    1302:	48 89 e6             	mov    %rsp,%rsi
    1305:	e8 26 fc ff ff       	callq  f30 <_init+0x30>
    130a:	85 c0                	test   %eax,%eax
    130c:	74 1b                	je     1329 <initialize_target+0x11d>
    130e:	83 c3 01             	add    $0x1,%ebx
    1311:	eb dc                	jmp    12ef <initialize_target+0xe3>
    1313:	48 8d 3d 5e 1f 00 00 	lea    0x1f5e(%rip),%rdi        # 3278 <_IO_stdin_used+0xe8>
    131a:	e8 39 fc ff ff       	callq  f58 <_init+0x58>
    131f:	bf 08 00 00 00       	mov    $0x8,%edi
    1324:	e8 e7 fc ff ff       	callq  1010 <_init+0x110>
    1329:	bd 01 00 00 00       	mov    $0x1,%ebp
    132e:	85 ed                	test   %ebp,%ebp
    1330:	74 3d                	je     136f <initialize_target+0x163>
    1332:	48 8d bc 24 00 01 00 	lea    0x100(%rsp),%rdi
    1339:	00 
    133a:	e8 04 1b 00 00       	callq  2e43 <init_driver>
    133f:	85 c0                	test   %eax,%eax
    1341:	0f 89 5a ff ff ff    	jns    12a1 <initialize_target+0x95>
    1347:	48 8d 94 24 00 01 00 	lea    0x100(%rsp),%rdx
    134e:	00 
    134f:	48 8d 35 9a 1f 00 00 	lea    0x1f9a(%rip),%rsi        # 32f0 <_IO_stdin_used+0x160>
    1356:	bf 01 00 00 00       	mov    $0x1,%edi
    135b:	b8 00 00 00 00       	mov    $0x0,%eax
    1360:	e8 83 fc ff ff       	callq  fe8 <_init+0xe8>
    1365:	bf 08 00 00 00       	mov    $0x8,%edi
    136a:	e8 a1 fc ff ff       	callq  1010 <_init+0x110>
    136f:	48 89 e2             	mov    %rsp,%rdx
    1372:	48 8d 35 37 1f 00 00 	lea    0x1f37(%rip),%rsi        # 32b0 <_IO_stdin_used+0x120>
    1379:	bf 01 00 00 00       	mov    $0x1,%edi
    137e:	b8 00 00 00 00       	mov    $0x0,%eax
    1383:	e8 60 fc ff ff       	callq  fe8 <_init+0xe8>
    1388:	bf 08 00 00 00       	mov    $0x8,%edi
    138d:	e8 7e fc ff ff       	callq  1010 <_init+0x110>
    1392:	e8 d1 fb ff ff       	callq  f68 <_init+0x68>

0000000000001397 <main>:
    1397:	41 56                	push   %r14
    1399:	41 55                	push   %r13
    139b:	41 54                	push   %r12
    139d:	55                   	push   %rbp
    139e:	53                   	push   %rbx
    139f:	41 89 fc             	mov    %edi,%r12d
    13a2:	48 89 f3             	mov    %rsi,%rbx
    13a5:	48 8d 35 77 0d 00 00 	lea    0xd77(%rip),%rsi        # 2123 <seghandler>
    13ac:	bf 0b 00 00 00       	mov    $0xb,%edi
    13b1:	e8 e2 fb ff ff       	callq  f98 <_init+0x98>
    13b6:	48 8d 35 12 0d 00 00 	lea    0xd12(%rip),%rsi        # 20cf <bushandler>
    13bd:	bf 07 00 00 00       	mov    $0x7,%edi
    13c2:	e8 d1 fb ff ff       	callq  f98 <_init+0x98>
    13c7:	48 8d 35 a9 0d 00 00 	lea    0xda9(%rip),%rsi        # 2177 <illegalhandler>
    13ce:	bf 04 00 00 00       	mov    $0x4,%edi
    13d3:	e8 c0 fb ff ff       	callq  f98 <_init+0x98>
    13d8:	83 3d 09 40 20 00 00 	cmpl   $0x0,0x204009(%rip)        # 2053e8 <is_checker>
    13df:	75 58                	jne    1439 <main+0xa2>
    13e1:	48 8d 2d cd 1f 00 00 	lea    0x1fcd(%rip),%rbp        # 33b5 <_IO_stdin_used+0x225>
    13e8:	48 8b 05 91 3f 20 00 	mov    0x203f91(%rip),%rax        # 205380 <stdin@@GLIBC_2.2.5>
    13ef:	48 89 05 da 3f 20 00 	mov    %rax,0x203fda(%rip)        # 2053d0 <infile>
    13f6:	41 bd 00 00 00 00    	mov    $0x0,%r13d
    13fc:	41 be 00 00 00 00    	mov    $0x0,%r14d
    1402:	48 89 ea             	mov    %rbp,%rdx
    1405:	48 89 de             	mov    %rbx,%rsi
    1408:	44 89 e7             	mov    %r12d,%edi
    140b:	e8 e8 fb ff ff       	callq  ff8 <_init+0xf8>
    1410:	3c ff                	cmp    $0xff,%al
    1412:	0f 84 02 01 00 00    	je     151a <main+0x183>
    1418:	0f be d0             	movsbl %al,%edx
    141b:	83 e8 61             	sub    $0x61,%eax
    141e:	3c 10                	cmp    $0x10,%al
    1420:	0f 87 d6 00 00 00    	ja     14fc <main+0x165>
    1426:	0f b6 c0             	movzbl %al,%eax
    1429:	48 8d 0d d0 1f 00 00 	lea    0x1fd0(%rip),%rcx        # 3400 <_IO_stdin_used+0x270>
    1430:	48 63 04 81          	movslq (%rcx,%rax,4),%rax
    1434:	48 01 c8             	add    %rcx,%rax
    1437:	ff e0                	jmpq   *%rax
    1439:	48 8d 35 8b 0d 00 00 	lea    0xd8b(%rip),%rsi        # 21cb <sigalrmhandler>
    1440:	bf 0e 00 00 00       	mov    $0xe,%edi
    1445:	e8 4e fb ff ff       	callq  f98 <_init+0x98>
    144a:	bf 05 00 00 00       	mov    $0x5,%edi
    144f:	e8 2c fb ff ff       	callq  f80 <_init+0x80>
    1454:	48 8d 2d 5f 1f 00 00 	lea    0x1f5f(%rip),%rbp        # 33ba <_IO_stdin_used+0x22a>
    145b:	eb 8b                	jmp    13e8 <main+0x51>
    145d:	48 8b 3b             	mov    (%rbx),%rdi
    1460:	e8 0b fd ff ff       	callq  1170 <usage>
    1465:	48 8d 35 61 22 00 00 	lea    0x2261(%rip),%rsi        # 36cd <_IO_stdin_used+0x53d>
    146c:	48 8b 3d 15 3f 20 00 	mov    0x203f15(%rip),%rdi        # 205388 <optarg@@GLIBC_2.2.5>
    1473:	e8 78 fb ff ff       	callq  ff0 <_init+0xf0>
    1478:	48 89 05 51 3f 20 00 	mov    %rax,0x203f51(%rip)        # 2053d0 <infile>
    147f:	48 85 c0             	test   %rax,%rax
    1482:	0f 85 7a ff ff ff    	jne    1402 <main+0x6b>
    1488:	48 8b 0d f9 3e 20 00 	mov    0x203ef9(%rip),%rcx        # 205388 <optarg@@GLIBC_2.2.5>
    148f:	48 8d 15 2c 1f 00 00 	lea    0x1f2c(%rip),%rdx        # 33c2 <_IO_stdin_used+0x232>
    1496:	be 01 00 00 00       	mov    $0x1,%esi
    149b:	48 8b 3d fe 3e 20 00 	mov    0x203efe(%rip),%rdi        # 2053a0 <stderr@@GLIBC_2.2.5>
    14a2:	e8 79 fb ff ff       	callq  1020 <_init+0x120>
    14a7:	b8 01 00 00 00       	mov    $0x1,%eax
    14ac:	e9 d8 00 00 00       	jmpq   1589 <main+0x1f2>
    14b1:	ba 10 00 00 00       	mov    $0x10,%edx
    14b6:	be 00 00 00 00       	mov    $0x0,%esi
    14bb:	48 8b 3d c6 3e 20 00 	mov    0x203ec6(%rip),%rdi        # 205388 <optarg@@GLIBC_2.2.5>
    14c2:	e8 39 fb ff ff       	callq  1000 <_init+0x100>
    14c7:	41 89 c6             	mov    %eax,%r14d
    14ca:	e9 33 ff ff ff       	jmpq   1402 <main+0x6b>
    14cf:	ba 0a 00 00 00       	mov    $0xa,%edx
    14d4:	be 00 00 00 00       	mov    $0x0,%esi
    14d9:	48 8b 3d a8 3e 20 00 	mov    0x203ea8(%rip),%rdi        # 205388 <optarg@@GLIBC_2.2.5>
    14e0:	e8 cb fa ff ff       	callq  fb0 <_init+0xb0>
    14e5:	41 89 c5             	mov    %eax,%r13d
    14e8:	e9 15 ff ff ff       	jmpq   1402 <main+0x6b>
    14ed:	c7 05 71 3e 20 00 00 	movl   $0x0,0x203e71(%rip)        # 205368 <notify>
    14f4:	00 00 00 
    14f7:	e9 06 ff ff ff       	jmpq   1402 <main+0x6b>
    14fc:	48 8d 35 dc 1e 00 00 	lea    0x1edc(%rip),%rsi        # 33df <_IO_stdin_used+0x24f>
    1503:	bf 01 00 00 00       	mov    $0x1,%edi
    1508:	b8 00 00 00 00       	mov    $0x0,%eax
    150d:	e8 d6 fa ff ff       	callq  fe8 <_init+0xe8>
    1512:	48 8b 3b             	mov    (%rbx),%rdi
    1515:	e8 56 fc ff ff       	callq  1170 <usage>
    151a:	be 00 00 00 00       	mov    $0x0,%esi
    151f:	44 89 ef             	mov    %r13d,%edi
    1522:	e8 e5 fc ff ff       	callq  120c <initialize_target>
    1527:	83 3d ba 3e 20 00 00 	cmpl   $0x0,0x203eba(%rip)        # 2053e8 <is_checker>
    152e:	74 2c                	je     155c <main+0x1c5>
    1530:	44 3b 35 a9 3e 20 00 	cmp    0x203ea9(%rip),%r14d        # 2053e0 <authkey>
    1537:	74 23                	je     155c <main+0x1c5>
    1539:	44 89 f2             	mov    %r14d,%edx
    153c:	48 8d 35 d5 1d 00 00 	lea    0x1dd5(%rip),%rsi        # 3318 <_IO_stdin_used+0x188>
    1543:	bf 01 00 00 00       	mov    $0x1,%edi
    1548:	b8 00 00 00 00       	mov    $0x0,%eax
    154d:	e8 96 fa ff ff       	callq  fe8 <_init+0xe8>
    1552:	b8 00 00 00 00       	mov    $0x0,%eax
    1557:	e8 d3 07 00 00       	callq  1d2f <check_fail>
    155c:	8b 15 82 3e 20 00    	mov    0x203e82(%rip),%edx        # 2053e4 <cookie>
    1562:	48 8d 35 89 1e 00 00 	lea    0x1e89(%rip),%rsi        # 33f2 <_IO_stdin_used+0x262>
    1569:	bf 01 00 00 00       	mov    $0x1,%edi
    156e:	b8 00 00 00 00       	mov    $0x0,%eax
    1573:	e8 70 fa ff ff       	callq  fe8 <_init+0xe8>
    1578:	48 8b 3d e1 3d 20 00 	mov    0x203de1(%rip),%rdi        # 205360 <buf_offset>
    157f:	e8 53 0d 00 00       	callq  22d7 <stable_launch>
    1584:	b8 00 00 00 00       	mov    $0x0,%eax
    1589:	5b                   	pop    %rbx
    158a:	5d                   	pop    %rbp
    158b:	41 5c                	pop    %r12
    158d:	41 5d                	pop    %r13
    158f:	41 5e                	pop    %r14
    1591:	c3                   	retq   

0000000000001592 <scramble>:
    1592:	48 83 ec 38          	sub    $0x38,%rsp
    1596:	64 48 8b 04 25 28 00 	mov    %fs:0x28,%rax
    159d:	00 00 
    159f:	48 89 44 24 28       	mov    %rax,0x28(%rsp)
    15a4:	31 c0                	xor    %eax,%eax
    15a6:	eb 10                	jmp    15b8 <scramble+0x26>
    15a8:	69 d0 0a fc 00 00    	imul   $0xfc0a,%eax,%edx
    15ae:	01 fa                	add    %edi,%edx
    15b0:	89 c1                	mov    %eax,%ecx
    15b2:	89 14 8c             	mov    %edx,(%rsp,%rcx,4)
    15b5:	83 c0 01             	add    $0x1,%eax
    15b8:	83 f8 09             	cmp    $0x9,%eax
    15bb:	76 eb                	jbe    15a8 <scramble+0x16>
    15bd:	8b 44 24 10          	mov    0x10(%rsp),%eax
    15c1:	69 c0 58 aa 00 00    	imul   $0xaa58,%eax,%eax
    15c7:	89 44 24 10          	mov    %eax,0x10(%rsp)
    15cb:	8b 44 24 0c          	mov    0xc(%rsp),%eax
    15cf:	69 c0 5a c0 00 00    	imul   $0xc05a,%eax,%eax
    15d5:	89 44 24 0c          	mov    %eax,0xc(%rsp)
    15d9:	8b 44 24 10          	mov    0x10(%rsp),%eax
    15dd:	69 c0 3b 74 00 00    	imul   $0x743b,%eax,%eax
    15e3:	89 44 24 10          	mov    %eax,0x10(%rsp)
    15e7:	8b 44 24 08          	mov    0x8(%rsp),%eax
    15eb:	69 c0 3a 37 00 00    	imul   $0x373a,%eax,%eax
    15f1:	89 44 24 08          	mov    %eax,0x8(%rsp)
    15f5:	8b 44 24 0c          	mov    0xc(%rsp),%eax
    15f9:	69 c0 ec 8f 00 00    	imul   $0x8fec,%eax,%eax
    15ff:	89 44 24 0c          	mov    %eax,0xc(%rsp)
    1603:	8b 44 24 20          	mov    0x20(%rsp),%eax
    1607:	69 c0 f1 13 00 00    	imul   $0x13f1,%eax,%eax
    160d:	89 44 24 20          	mov    %eax,0x20(%rsp)
    1611:	8b 44 24 04          	mov    0x4(%rsp),%eax
    1615:	69 c0 ad 85 00 00    	imul   $0x85ad,%eax,%eax
    161b:	89 44 24 04          	mov    %eax,0x4(%rsp)
    161f:	8b 44 24 04          	mov    0x4(%rsp),%eax
    1623:	69 c0 ed 8d 00 00    	imul   $0x8ded,%eax,%eax
    1629:	89 44 24 04          	mov    %eax,0x4(%rsp)
    162d:	8b 04 24             	mov    (%rsp),%eax
    1630:	69 c0 25 59 00 00    	imul   $0x5925,%eax,%eax
    1636:	89 04 24             	mov    %eax,(%rsp)
    1639:	8b 04 24             	mov    (%rsp),%eax
    163c:	69 c0 f9 17 00 00    	imul   $0x17f9,%eax,%eax
    1642:	89 04 24             	mov    %eax,(%rsp)
    1645:	8b 44 24 18          	mov    0x18(%rsp),%eax
    1649:	69 c0 7f d2 00 00    	imul   $0xd27f,%eax,%eax
    164f:	89 44 24 18          	mov    %eax,0x18(%rsp)
    1653:	8b 44 24 1c          	mov    0x1c(%rsp),%eax
    1657:	69 c0 60 ba 00 00    	imul   $0xba60,%eax,%eax
    165d:	89 44 24 1c          	mov    %eax,0x1c(%rsp)
    1661:	8b 44 24 24          	mov    0x24(%rsp),%eax
    1665:	69 c0 12 f3 00 00    	imul   $0xf312,%eax,%eax
    166b:	89 44 24 24          	mov    %eax,0x24(%rsp)
    166f:	8b 44 24 08          	mov    0x8(%rsp),%eax
    1673:	69 c0 19 ea 00 00    	imul   $0xea19,%eax,%eax
    1679:	89 44 24 08          	mov    %eax,0x8(%rsp)
    167d:	8b 04 24             	mov    (%rsp),%eax
    1680:	69 c0 10 89 00 00    	imul   $0x8910,%eax,%eax
    1686:	89 04 24             	mov    %eax,(%rsp)
    1689:	8b 44 24 10          	mov    0x10(%rsp),%eax
    168d:	69 c0 40 c9 00 00    	imul   $0xc940,%eax,%eax
    1693:	89 44 24 10          	mov    %eax,0x10(%rsp)
    1697:	8b 44 24 10          	mov    0x10(%rsp),%eax
    169b:	69 c0 2f a4 00 00    	imul   $0xa42f,%eax,%eax
    16a1:	89 44 24 10          	mov    %eax,0x10(%rsp)
    16a5:	8b 44 24 18          	mov    0x18(%rsp),%eax
    16a9:	69 c0 17 27 00 00    	imul   $0x2717,%eax,%eax
    16af:	89 44 24 18          	mov    %eax,0x18(%rsp)
    16b3:	8b 44 24 08          	mov    0x8(%rsp),%eax
    16b7:	69 c0 d8 da 00 00    	imul   $0xdad8,%eax,%eax
    16bd:	89 44 24 08          	mov    %eax,0x8(%rsp)
    16c1:	8b 04 24             	mov    (%rsp),%eax
    16c4:	69 c0 4a 43 00 00    	imul   $0x434a,%eax,%eax
    16ca:	89 04 24             	mov    %eax,(%rsp)
    16cd:	8b 44 24 14          	mov    0x14(%rsp),%eax
    16d1:	69 c0 d3 e1 00 00    	imul   $0xe1d3,%eax,%eax
    16d7:	89 44 24 14          	mov    %eax,0x14(%rsp)
    16db:	8b 04 24             	mov    (%rsp),%eax
    16de:	69 c0 b0 c0 00 00    	imul   $0xc0b0,%eax,%eax
    16e4:	89 04 24             	mov    %eax,(%rsp)
    16e7:	8b 44 24 1c          	mov    0x1c(%rsp),%eax
    16eb:	69 c0 c0 a4 00 00    	imul   $0xa4c0,%eax,%eax
    16f1:	89 44 24 1c          	mov    %eax,0x1c(%rsp)
    16f5:	8b 44 24 04          	mov    0x4(%rsp),%eax
    16f9:	69 c0 73 87 00 00    	imul   $0x8773,%eax,%eax
    16ff:	89 44 24 04          	mov    %eax,0x4(%rsp)
    1703:	8b 44 24 10          	mov    0x10(%rsp),%eax
    1707:	69 c0 67 de 00 00    	imul   $0xde67,%eax,%eax
    170d:	89 44 24 10          	mov    %eax,0x10(%rsp)
    1711:	8b 44 24 20          	mov    0x20(%rsp),%eax
    1715:	69 c0 14 de 00 00    	imul   $0xde14,%eax,%eax
    171b:	89 44 24 20          	mov    %eax,0x20(%rsp)
    171f:	8b 44 24 18          	mov    0x18(%rsp),%eax
    1723:	69 c0 54 61 00 00    	imul   $0x6154,%eax,%eax
    1729:	89 44 24 18          	mov    %eax,0x18(%rsp)
    172d:	8b 44 24 1c          	mov    0x1c(%rsp),%eax
    1731:	69 c0 8e 73 00 00    	imul   $0x738e,%eax,%eax
    1737:	89 44 24 1c          	mov    %eax,0x1c(%rsp)
    173b:	8b 44 24 1c          	mov    0x1c(%rsp),%eax
    173f:	69 c0 09 e5 00 00    	imul   $0xe509,%eax,%eax
    1745:	89 44 24 1c          	mov    %eax,0x1c(%rsp)
    1749:	8b 04 24             	mov    (%rsp),%eax
    174c:	69 c0 9d 21 00 00    	imul   $0x219d,%eax,%eax
    1752:	89 04 24             	mov    %eax,(%rsp)
    1755:	8b 44 24 14          	mov    0x14(%rsp),%eax
    1759:	69 c0 c4 ab 00 00    	imul   $0xabc4,%eax,%eax
    175f:	89 44 24 14          	mov    %eax,0x14(%rsp)
    1763:	8b 44 24 0c          	mov    0xc(%rsp),%eax
    1767:	69 c0 82 a1 00 00    	imul   $0xa182,%eax,%eax
    176d:	89 44 24 0c          	mov    %eax,0xc(%rsp)
    1771:	8b 44 24 18          	mov    0x18(%rsp),%eax
    1775:	69 c0 77 74 00 00    	imul   $0x7477,%eax,%eax
    177b:	89 44 24 18          	mov    %eax,0x18(%rsp)
    177f:	8b 44 24 24          	mov    0x24(%rsp),%eax
    1783:	69 c0 5d 68 00 00    	imul   $0x685d,%eax,%eax
    1789:	89 44 24 24          	mov    %eax,0x24(%rsp)
    178d:	8b 44 24 10          	mov    0x10(%rsp),%eax
    1791:	69 c0 ec 26 00 00    	imul   $0x26ec,%eax,%eax
    1797:	89 44 24 10          	mov    %eax,0x10(%rsp)
    179b:	8b 44 24 24          	mov    0x24(%rsp),%eax
    179f:	69 c0 14 ba 00 00    	imul   $0xba14,%eax,%eax
    17a5:	89 44 24 24          	mov    %eax,0x24(%rsp)
    17a9:	8b 04 24             	mov    (%rsp),%eax
    17ac:	69 c0 e3 02 00 00    	imul   $0x2e3,%eax,%eax
    17b2:	89 04 24             	mov    %eax,(%rsp)
    17b5:	8b 44 24 18          	mov    0x18(%rsp),%eax
    17b9:	69 c0 3f 70 00 00    	imul   $0x703f,%eax,%eax
    17bf:	89 44 24 18          	mov    %eax,0x18(%rsp)
    17c3:	8b 44 24 08          	mov    0x8(%rsp),%eax
    17c7:	69 c0 62 c9 00 00    	imul   $0xc962,%eax,%eax
    17cd:	89 44 24 08          	mov    %eax,0x8(%rsp)
    17d1:	8b 44 24 1c          	mov    0x1c(%rsp),%eax
    17d5:	69 c0 89 a5 00 00    	imul   $0xa589,%eax,%eax
    17db:	89 44 24 1c          	mov    %eax,0x1c(%rsp)
    17df:	8b 44 24 04          	mov    0x4(%rsp),%eax
    17e3:	69 c0 1e 97 00 00    	imul   $0x971e,%eax,%eax
    17e9:	89 44 24 04          	mov    %eax,0x4(%rsp)
    17ed:	8b 44 24 20          	mov    0x20(%rsp),%eax
    17f1:	69 c0 b0 58 00 00    	imul   $0x58b0,%eax,%eax
    17f7:	89 44 24 20          	mov    %eax,0x20(%rsp)
    17fb:	8b 44 24 18          	mov    0x18(%rsp),%eax
    17ff:	69 c0 11 1c 00 00    	imul   $0x1c11,%eax,%eax
    1805:	89 44 24 18          	mov    %eax,0x18(%rsp)
    1809:	8b 44 24 14          	mov    0x14(%rsp),%eax
    180d:	69 c0 d9 4c 00 00    	imul   $0x4cd9,%eax,%eax
    1813:	89 44 24 14          	mov    %eax,0x14(%rsp)
    1817:	8b 44 24 18          	mov    0x18(%rsp),%eax
    181b:	69 c0 e5 29 00 00    	imul   $0x29e5,%eax,%eax
    1821:	89 44 24 18          	mov    %eax,0x18(%rsp)
    1825:	8b 44 24 0c          	mov    0xc(%rsp),%eax
    1829:	69 c0 35 6f 00 00    	imul   $0x6f35,%eax,%eax
    182f:	89 44 24 0c          	mov    %eax,0xc(%rsp)
    1833:	8b 44 24 14          	mov    0x14(%rsp),%eax
    1837:	69 c0 53 59 00 00    	imul   $0x5953,%eax,%eax
    183d:	89 44 24 14          	mov    %eax,0x14(%rsp)
    1841:	8b 44 24 10          	mov    0x10(%rsp),%eax
    1845:	69 c0 9c 25 00 00    	imul   $0x259c,%eax,%eax
    184b:	89 44 24 10          	mov    %eax,0x10(%rsp)
    184f:	8b 04 24             	mov    (%rsp),%eax
    1852:	69 c0 51 d9 00 00    	imul   $0xd951,%eax,%eax
    1858:	89 04 24             	mov    %eax,(%rsp)
    185b:	8b 44 24 0c          	mov    0xc(%rsp),%eax
    185f:	69 c0 1a 1d 00 00    	imul   $0x1d1a,%eax,%eax
    1865:	89 44 24 0c          	mov    %eax,0xc(%rsp)
    1869:	8b 44 24 18          	mov    0x18(%rsp),%eax
    186d:	69 c0 a2 39 00 00    	imul   $0x39a2,%eax,%eax
    1873:	89 44 24 18          	mov    %eax,0x18(%rsp)
    1877:	8b 44 24 14          	mov    0x14(%rsp),%eax
    187b:	69 c0 fc 08 00 00    	imul   $0x8fc,%eax,%eax
    1881:	89 44 24 14          	mov    %eax,0x14(%rsp)
    1885:	8b 44 24 0c          	mov    0xc(%rsp),%eax
    1889:	69 c0 f2 51 00 00    	imul   $0x51f2,%eax,%eax
    188f:	89 44 24 0c          	mov    %eax,0xc(%rsp)
    1893:	8b 44 24 18          	mov    0x18(%rsp),%eax
    1897:	69 c0 29 e4 00 00    	imul   $0xe429,%eax,%eax
    189d:	89 44 24 18          	mov    %eax,0x18(%rsp)
    18a1:	8b 44 24 04          	mov    0x4(%rsp),%eax
    18a5:	69 c0 ed 70 00 00    	imul   $0x70ed,%eax,%eax
    18ab:	89 44 24 04          	mov    %eax,0x4(%rsp)
    18af:	8b 44 24 04          	mov    0x4(%rsp),%eax
    18b3:	69 c0 1e c3 00 00    	imul   $0xc31e,%eax,%eax
    18b9:	89 44 24 04          	mov    %eax,0x4(%rsp)
    18bd:	8b 44 24 10          	mov    0x10(%rsp),%eax
    18c1:	69 c0 50 0d 00 00    	imul   $0xd50,%eax,%eax
    18c7:	89 44 24 10          	mov    %eax,0x10(%rsp)
    18cb:	8b 44 24 10          	mov    0x10(%rsp),%eax
    18cf:	6b c0 7e             	imul   $0x7e,%eax,%eax
    18d2:	89 44 24 10          	mov    %eax,0x10(%rsp)
    18d6:	8b 44 24 04          	mov    0x4(%rsp),%eax
    18da:	69 c0 0c e8 00 00    	imul   $0xe80c,%eax,%eax
    18e0:	89 44 24 04          	mov    %eax,0x4(%rsp)
    18e4:	8b 44 24 14          	mov    0x14(%rsp),%eax
    18e8:	69 c0 7d 2a 00 00    	imul   $0x2a7d,%eax,%eax
    18ee:	89 44 24 14          	mov    %eax,0x14(%rsp)
    18f2:	8b 44 24 20          	mov    0x20(%rsp),%eax
    18f6:	69 c0 ce bb 00 00    	imul   $0xbbce,%eax,%eax
    18fc:	89 44 24 20          	mov    %eax,0x20(%rsp)
    1900:	8b 44 24 0c          	mov    0xc(%rsp),%eax
    1904:	69 c0 9b e7 00 00    	imul   $0xe79b,%eax,%eax
    190a:	89 44 24 0c          	mov    %eax,0xc(%rsp)
    190e:	8b 44 24 1c          	mov    0x1c(%rsp),%eax
    1912:	69 c0 69 aa 00 00    	imul   $0xaa69,%eax,%eax
    1918:	89 44 24 1c          	mov    %eax,0x1c(%rsp)
    191c:	8b 44 24 1c          	mov    0x1c(%rsp),%eax
    1920:	69 c0 ec e2 00 00    	imul   $0xe2ec,%eax,%eax
    1926:	89 44 24 1c          	mov    %eax,0x1c(%rsp)
    192a:	8b 44 24 10          	mov    0x10(%rsp),%eax
    192e:	69 c0 31 9b 00 00    	imul   $0x9b31,%eax,%eax
    1934:	89 44 24 10          	mov    %eax,0x10(%rsp)
    1938:	8b 44 24 14          	mov    0x14(%rsp),%eax
    193c:	69 c0 f8 83 00 00    	imul   $0x83f8,%eax,%eax
    1942:	89 44 24 14          	mov    %eax,0x14(%rsp)
    1946:	8b 44 24 1c          	mov    0x1c(%rsp),%eax
    194a:	69 c0 34 d7 00 00    	imul   $0xd734,%eax,%eax
    1950:	89 44 24 1c          	mov    %eax,0x1c(%rsp)
    1954:	8b 44 24 20          	mov    0x20(%rsp),%eax
    1958:	69 c0 59 11 00 00    	imul   $0x1159,%eax,%eax
    195e:	89 44 24 20          	mov    %eax,0x20(%rsp)
    1962:	8b 44 24 10          	mov    0x10(%rsp),%eax
    1966:	69 c0 30 06 00 00    	imul   $0x630,%eax,%eax
    196c:	89 44 24 10          	mov    %eax,0x10(%rsp)
    1970:	8b 44 24 18          	mov    0x18(%rsp),%eax
    1974:	69 c0 7b 44 00 00    	imul   $0x447b,%eax,%eax
    197a:	89 44 24 18          	mov    %eax,0x18(%rsp)
    197e:	8b 44 24 0c          	mov    0xc(%rsp),%eax
    1982:	69 c0 35 7f 00 00    	imul   $0x7f35,%eax,%eax
    1988:	89 44 24 0c          	mov    %eax,0xc(%rsp)
    198c:	8b 44 24 08          	mov    0x8(%rsp),%eax
    1990:	69 c0 29 7f 00 00    	imul   $0x7f29,%eax,%eax
    1996:	89 44 24 08          	mov    %eax,0x8(%rsp)
    199a:	8b 44 24 0c          	mov    0xc(%rsp),%eax
    199e:	69 c0 67 23 00 00    	imul   $0x2367,%eax,%eax
    19a4:	89 44 24 0c          	mov    %eax,0xc(%rsp)
    19a8:	8b 44 24 24          	mov    0x24(%rsp),%eax
    19ac:	69 c0 e8 b5 00 00    	imul   $0xb5e8,%eax,%eax
    19b2:	89 44 24 24          	mov    %eax,0x24(%rsp)
    19b6:	8b 44 24 1c          	mov    0x1c(%rsp),%eax
    19ba:	69 c0 ff cc 00 00    	imul   $0xccff,%eax,%eax
    19c0:	89 44 24 1c          	mov    %eax,0x1c(%rsp)
    19c4:	8b 44 24 14          	mov    0x14(%rsp),%eax
    19c8:	69 c0 64 1d 00 00    	imul   $0x1d64,%eax,%eax
    19ce:	89 44 24 14          	mov    %eax,0x14(%rsp)
    19d2:	8b 44 24 14          	mov    0x14(%rsp),%eax
    19d6:	69 c0 17 7a 00 00    	imul   $0x7a17,%eax,%eax
    19dc:	89 44 24 14          	mov    %eax,0x14(%rsp)
    19e0:	8b 04 24             	mov    (%rsp),%eax
    19e3:	69 c0 ee 9d 00 00    	imul   $0x9dee,%eax,%eax
    19e9:	89 04 24             	mov    %eax,(%rsp)
    19ec:	8b 44 24 20          	mov    0x20(%rsp),%eax
    19f0:	69 c0 37 12 00 00    	imul   $0x1237,%eax,%eax
    19f6:	89 44 24 20          	mov    %eax,0x20(%rsp)
    19fa:	8b 44 24 18          	mov    0x18(%rsp),%eax
    19fe:	69 c0 3b a8 00 00    	imul   $0xa83b,%eax,%eax
    1a04:	89 44 24 18          	mov    %eax,0x18(%rsp)
    1a08:	8b 44 24 08          	mov    0x8(%rsp),%eax
    1a0c:	69 c0 e0 80 00 00    	imul   $0x80e0,%eax,%eax
    1a12:	89 44 24 08          	mov    %eax,0x8(%rsp)
    1a16:	8b 44 24 10          	mov    0x10(%rsp),%eax
    1a1a:	69 c0 3c 82 00 00    	imul   $0x823c,%eax,%eax
    1a20:	89 44 24 10          	mov    %eax,0x10(%rsp)
    1a24:	8b 44 24 14          	mov    0x14(%rsp),%eax
    1a28:	69 c0 29 b9 00 00    	imul   $0xb929,%eax,%eax
    1a2e:	89 44 24 14          	mov    %eax,0x14(%rsp)
    1a32:	8b 44 24 04          	mov    0x4(%rsp),%eax
    1a36:	69 c0 3b 81 00 00    	imul   $0x813b,%eax,%eax
    1a3c:	89 44 24 04          	mov    %eax,0x4(%rsp)
    1a40:	8b 04 24             	mov    (%rsp),%eax
    1a43:	69 c0 17 89 00 00    	imul   $0x8917,%eax,%eax
    1a49:	89 04 24             	mov    %eax,(%rsp)
    1a4c:	8b 44 24 24          	mov    0x24(%rsp),%eax
    1a50:	69 c0 77 36 00 00    	imul   $0x3677,%eax,%eax
    1a56:	89 44 24 24          	mov    %eax,0x24(%rsp)
    1a5a:	8b 44 24 04          	mov    0x4(%rsp),%eax
    1a5e:	69 c0 4f cd 00 00    	imul   $0xcd4f,%eax,%eax
    1a64:	89 44 24 04          	mov    %eax,0x4(%rsp)
    1a68:	8b 44 24 10          	mov    0x10(%rsp),%eax
    1a6c:	69 c0 d3 94 00 00    	imul   $0x94d3,%eax,%eax
    1a72:	89 44 24 10          	mov    %eax,0x10(%rsp)
    1a76:	8b 44 24 24          	mov    0x24(%rsp),%eax
    1a7a:	69 c0 48 35 00 00    	imul   $0x3548,%eax,%eax
    1a80:	89 44 24 24          	mov    %eax,0x24(%rsp)
    1a84:	8b 44 24 0c          	mov    0xc(%rsp),%eax
    1a88:	69 c0 29 fc 00 00    	imul   $0xfc29,%eax,%eax
    1a8e:	89 44 24 0c          	mov    %eax,0xc(%rsp)
    1a92:	ba 00 00 00 00       	mov    $0x0,%edx
    1a97:	b8 00 00 00 00       	mov    $0x0,%eax
    1a9c:	eb 0a                	jmp    1aa8 <scramble+0x516>
    1a9e:	89 d1                	mov    %edx,%ecx
    1aa0:	8b 0c 8c             	mov    (%rsp,%rcx,4),%ecx
    1aa3:	01 c8                	add    %ecx,%eax
    1aa5:	83 c2 01             	add    $0x1,%edx
    1aa8:	83 fa 09             	cmp    $0x9,%edx
    1aab:	76 f1                	jbe    1a9e <scramble+0x50c>
    1aad:	48 8b 74 24 28       	mov    0x28(%rsp),%rsi
    1ab2:	64 48 33 34 25 28 00 	xor    %fs:0x28,%rsi
    1ab9:	00 00 
    1abb:	75 05                	jne    1ac2 <scramble+0x530>
    1abd:	48 83 c4 38          	add    $0x38,%rsp
    1ac1:	c3                   	retq   
    1ac2:	e8 a1 f4 ff ff       	callq  f68 <_init+0x68>

0000000000001ac7 <getbuf>:
    1ac7:	48 83 ec 18          	sub    $0x18,%rsp
    1acb:	48 89 e7             	mov    %rsp,%rdi
    1ace:	e8 94 02 00 00       	callq  1d67 <Gets>
    1ad3:	b8 01 00 00 00       	mov    $0x1,%eax
    1ad8:	48 83 c4 18          	add    $0x18,%rsp
    1adc:	c3                   	retq   

0000000000001add <touch1>:
    1add:	48 83 ec 08          	sub    $0x8,%rsp
    1ae1:	c7 05 f1 38 20 00 01 	movl   $0x1,0x2038f1(%rip)        # 2053dc <vlevel>
    1ae8:	00 00 00 
    1aeb:	48 8d 3d 34 1a 00 00 	lea    0x1a34(%rip),%rdi        # 3526 <_IO_stdin_used+0x396>
    1af2:	e8 61 f4 ff ff       	callq  f58 <_init+0x58>
    1af7:	bf 01 00 00 00       	mov    $0x1,%edi
    1afc:	e8 d6 04 00 00       	callq  1fd7 <validate>
    1b01:	bf 00 00 00 00       	mov    $0x0,%edi
    1b06:	e8 05 f5 ff ff       	callq  1010 <_init+0x110>

0000000000001b0b <touch2>:
    1b0b:	48 83 ec 08          	sub    $0x8,%rsp
    1b0f:	89 fa                	mov    %edi,%edx
    1b11:	c7 05 c1 38 20 00 02 	movl   $0x2,0x2038c1(%rip)        # 2053dc <vlevel>
    1b18:	00 00 00 
    1b1b:	39 3d c3 38 20 00    	cmp    %edi,0x2038c3(%rip)        # 2053e4 <cookie>
    1b21:	74 2a                	je     1b4d <touch2+0x42>
    1b23:	48 8d 35 46 1a 00 00 	lea    0x1a46(%rip),%rsi        # 3570 <_IO_stdin_used+0x3e0>
    1b2a:	bf 01 00 00 00       	mov    $0x1,%edi
    1b2f:	b8 00 00 00 00       	mov    $0x0,%eax
    1b34:	e8 af f4 ff ff       	callq  fe8 <_init+0xe8>
    1b39:	bf 02 00 00 00       	mov    $0x2,%edi
    1b3e:	e8 64 05 00 00       	callq  20a7 <fail>
    1b43:	bf 00 00 00 00       	mov    $0x0,%edi
    1b48:	e8 c3 f4 ff ff       	callq  1010 <_init+0x110>
    1b4d:	48 8d 35 f4 19 00 00 	lea    0x19f4(%rip),%rsi        # 3548 <_IO_stdin_used+0x3b8>
    1b54:	bf 01 00 00 00       	mov    $0x1,%edi
    1b59:	b8 00 00 00 00       	mov    $0x0,%eax
    1b5e:	e8 85 f4 ff ff       	callq  fe8 <_init+0xe8>
    1b63:	bf 02 00 00 00       	mov    $0x2,%edi
    1b68:	e8 6a 04 00 00       	callq  1fd7 <validate>
    1b6d:	eb d4                	jmp    1b43 <touch2+0x38>

0000000000001b6f <hexmatch>:
    1b6f:	41 54                	push   %r12
    1b71:	55                   	push   %rbp
    1b72:	53                   	push   %rbx
    1b73:	48 83 c4 80          	add    $0xffffffffffffff80,%rsp
    1b77:	89 fd                	mov    %edi,%ebp
    1b79:	48 89 f3             	mov    %rsi,%rbx
    1b7c:	64 48 8b 04 25 28 00 	mov    %fs:0x28,%rax
    1b83:	00 00 
    1b85:	48 89 44 24 78       	mov    %rax,0x78(%rsp)
    1b8a:	31 c0                	xor    %eax,%eax
    1b8c:	e8 37 f4 ff ff       	callq  fc8 <_init+0xc8>
    1b91:	48 89 c1             	mov    %rax,%rcx
    1b94:	48 ba 0b d7 a3 70 3d 	movabs $0xa3d70a3d70a3d70b,%rdx
    1b9b:	0a d7 a3 
    1b9e:	48 f7 ea             	imul   %rdx
    1ba1:	48 01 ca             	add    %rcx,%rdx
    1ba4:	48 c1 fa 06          	sar    $0x6,%rdx
    1ba8:	48 89 c8             	mov    %rcx,%rax
    1bab:	48 c1 f8 3f          	sar    $0x3f,%rax
    1baf:	48 29 c2             	sub    %rax,%rdx
    1bb2:	48 8d 04 92          	lea    (%rdx,%rdx,4),%rax
    1bb6:	48 8d 14 80          	lea    (%rax,%rax,4),%rdx
    1bba:	48 8d 04 95 00 00 00 	lea    0x0(,%rdx,4),%rax
    1bc1:	00 
    1bc2:	48 29 c1             	sub    %rax,%rcx
    1bc5:	4c 8d 24 0c          	lea    (%rsp,%rcx,1),%r12
    1bc9:	41 89 e8             	mov    %ebp,%r8d
    1bcc:	48 8d 0d 70 19 00 00 	lea    0x1970(%rip),%rcx        # 3543 <_IO_stdin_used+0x3b3>
    1bd3:	48 c7 c2 ff ff ff ff 	mov    $0xffffffffffffffff,%rdx
    1bda:	be 01 00 00 00       	mov    $0x1,%esi
    1bdf:	4c 89 e7             	mov    %r12,%rdi
    1be2:	b8 00 00 00 00       	mov    $0x0,%eax
    1be7:	e8 44 f4 ff ff       	callq  1030 <_init+0x130>
    1bec:	ba 09 00 00 00       	mov    $0x9,%edx
    1bf1:	4c 89 e6             	mov    %r12,%rsi
    1bf4:	48 89 df             	mov    %rbx,%rdi
    1bf7:	e8 4c f3 ff ff       	callq  f48 <_init+0x48>
    1bfc:	85 c0                	test   %eax,%eax
    1bfe:	0f 94 c0             	sete   %al
    1c01:	48 8b 5c 24 78       	mov    0x78(%rsp),%rbx
    1c06:	64 48 33 1c 25 28 00 	xor    %fs:0x28,%rbx
    1c0d:	00 00 
    1c0f:	75 0c                	jne    1c1d <hexmatch+0xae>
    1c11:	0f b6 c0             	movzbl %al,%eax
    1c14:	48 83 ec 80          	sub    $0xffffffffffffff80,%rsp
    1c18:	5b                   	pop    %rbx
    1c19:	5d                   	pop    %rbp
    1c1a:	41 5c                	pop    %r12
    1c1c:	c3                   	retq   
    1c1d:	e8 46 f3 ff ff       	callq  f68 <_init+0x68>

0000000000001c22 <touch3>:
    1c22:	53                   	push   %rbx
    1c23:	48 89 fb             	mov    %rdi,%rbx
    1c26:	c7 05 ac 37 20 00 03 	movl   $0x3,0x2037ac(%rip)        # 2053dc <vlevel>
    1c2d:	00 00 00 
    1c30:	48 89 fe             	mov    %rdi,%rsi
    1c33:	8b 3d ab 37 20 00    	mov    0x2037ab(%rip),%edi        # 2053e4 <cookie>
    1c39:	e8 31 ff ff ff       	callq  1b6f <hexmatch>
    1c3e:	85 c0                	test   %eax,%eax
    1c40:	74 2d                	je     1c6f <touch3+0x4d>
    1c42:	48 89 da             	mov    %rbx,%rdx
    1c45:	48 8d 35 4c 19 00 00 	lea    0x194c(%rip),%rsi        # 3598 <_IO_stdin_used+0x408>
    1c4c:	bf 01 00 00 00       	mov    $0x1,%edi
    1c51:	b8 00 00 00 00       	mov    $0x0,%eax
    1c56:	e8 8d f3 ff ff       	callq  fe8 <_init+0xe8>
    1c5b:	bf 03 00 00 00       	mov    $0x3,%edi
    1c60:	e8 72 03 00 00       	callq  1fd7 <validate>
    1c65:	bf 00 00 00 00       	mov    $0x0,%edi
    1c6a:	e8 a1 f3 ff ff       	callq  1010 <_init+0x110>
    1c6f:	48 89 da             	mov    %rbx,%rdx
    1c72:	48 8d 35 47 19 00 00 	lea    0x1947(%rip),%rsi        # 35c0 <_IO_stdin_used+0x430>
    1c79:	bf 01 00 00 00       	mov    $0x1,%edi
    1c7e:	b8 00 00 00 00       	mov    $0x0,%eax
    1c83:	e8 60 f3 ff ff       	callq  fe8 <_init+0xe8>
    1c88:	bf 03 00 00 00       	mov    $0x3,%edi
    1c8d:	e8 15 04 00 00       	callq  20a7 <fail>
    1c92:	eb d1                	jmp    1c65 <touch3+0x43>

0000000000001c94 <test>:
    1c94:	48 83 ec 08          	sub    $0x8,%rsp
    1c98:	b8 00 00 00 00       	mov    $0x0,%eax
    1c9d:	e8 25 fe ff ff       	callq  1ac7 <getbuf>
    1ca2:	89 c2                	mov    %eax,%edx
    1ca4:	48 8d 35 3d 19 00 00 	lea    0x193d(%rip),%rsi        # 35e8 <_IO_stdin_used+0x458>
    1cab:	bf 01 00 00 00       	mov    $0x1,%edi
    1cb0:	b8 00 00 00 00       	mov    $0x0,%eax
    1cb5:	e8 2e f3 ff ff       	callq  fe8 <_init+0xe8>
    1cba:	48 83 c4 08          	add    $0x8,%rsp
    1cbe:	c3                   	retq   

0000000000001cbf <save_char>:
    1cbf:	8b 05 3f 43 20 00    	mov    0x20433f(%rip),%eax        # 206004 <gets_cnt>
    1cc5:	3d ff 03 00 00       	cmp    $0x3ff,%eax
    1cca:	7f 4a                	jg     1d16 <save_char+0x57>
    1ccc:	8d 14 40             	lea    (%rax,%rax,2),%edx
    1ccf:	89 f9                	mov    %edi,%ecx
    1cd1:	c0 e9 04             	shr    $0x4,%cl
    1cd4:	4c 8d 05 35 1c 00 00 	lea    0x1c35(%rip),%r8        # 3910 <trans_char>
    1cdb:	83 e1 0f             	and    $0xf,%ecx
    1cde:	45 0f b6 0c 08       	movzbl (%r8,%rcx,1),%r9d
    1ce3:	48 8d 0d 16 37 20 00 	lea    0x203716(%rip),%rcx        # 205400 <gets_buf>
    1cea:	48 63 f2             	movslq %edx,%rsi
    1ced:	44 88 0c 31          	mov    %r9b,(%rcx,%rsi,1)
    1cf1:	8d 72 01             	lea    0x1(%rdx),%esi
    1cf4:	83 e7 0f             	and    $0xf,%edi
    1cf7:	41 0f b6 3c 38       	movzbl (%r8,%rdi,1),%edi
    1cfc:	48 63 f6             	movslq %esi,%rsi
    1cff:	40 88 3c 31          	mov    %dil,(%rcx,%rsi,1)
    1d03:	83 c2 02             	add    $0x2,%edx
    1d06:	48 63 d2             	movslq %edx,%rdx
    1d09:	c6 04 11 20          	movb   $0x20,(%rcx,%rdx,1)
    1d0d:	83 c0 01             	add    $0x1,%eax
    1d10:	89 05 ee 42 20 00    	mov    %eax,0x2042ee(%rip)        # 206004 <gets_cnt>
    1d16:	f3 c3                	repz retq 

0000000000001d18 <save_term>:
    1d18:	8b 05 e6 42 20 00    	mov    0x2042e6(%rip),%eax        # 206004 <gets_cnt>
    1d1e:	8d 04 40             	lea    (%rax,%rax,2),%eax
    1d21:	48 98                	cltq   
    1d23:	48 8d 15 d6 36 20 00 	lea    0x2036d6(%rip),%rdx        # 205400 <gets_buf>
    1d2a:	c6 04 02 00          	movb   $0x0,(%rdx,%rax,1)
    1d2e:	c3                   	retq   

0000000000001d2f <check_fail>:
    1d2f:	48 83 ec 08          	sub    $0x8,%rsp
    1d33:	0f be 15 ce 42 20 00 	movsbl 0x2042ce(%rip),%edx        # 206008 <target_prefix>
    1d3a:	4c 8d 05 bf 36 20 00 	lea    0x2036bf(%rip),%r8        # 205400 <gets_buf>
    1d41:	8b 0d 91 36 20 00    	mov    0x203691(%rip),%ecx        # 2053d8 <check_level>
    1d47:	48 8d 35 bd 18 00 00 	lea    0x18bd(%rip),%rsi        # 360b <_IO_stdin_used+0x47b>
    1d4e:	bf 01 00 00 00       	mov    $0x1,%edi
    1d53:	b8 00 00 00 00       	mov    $0x0,%eax
    1d58:	e8 8b f2 ff ff       	callq  fe8 <_init+0xe8>
    1d5d:	bf 01 00 00 00       	mov    $0x1,%edi
    1d62:	e8 a9 f2 ff ff       	callq  1010 <_init+0x110>

0000000000001d67 <Gets>:
    1d67:	41 54                	push   %r12
    1d69:	55                   	push   %rbp
    1d6a:	53                   	push   %rbx
    1d6b:	49 89 fc             	mov    %rdi,%r12
    1d6e:	c7 05 8c 42 20 00 00 	movl   $0x0,0x20428c(%rip)        # 206004 <gets_cnt>
    1d75:	00 00 00 
    1d78:	48 89 fb             	mov    %rdi,%rbx
    1d7b:	eb 11                	jmp    1d8e <Gets+0x27>
    1d7d:	48 8d 6b 01          	lea    0x1(%rbx),%rbp
    1d81:	88 03                	mov    %al,(%rbx)
    1d83:	0f b6 f8             	movzbl %al,%edi
    1d86:	e8 34 ff ff ff       	callq  1cbf <save_char>
    1d8b:	48 89 eb             	mov    %rbp,%rbx
    1d8e:	48 8b 3d 3b 36 20 00 	mov    0x20363b(%rip),%rdi        # 2053d0 <infile>
    1d95:	e8 36 f2 ff ff       	callq  fd0 <_init+0xd0>
    1d9a:	83 f8 ff             	cmp    $0xffffffff,%eax
    1d9d:	74 05                	je     1da4 <Gets+0x3d>
    1d9f:	83 f8 0a             	cmp    $0xa,%eax
    1da2:	75 d9                	jne    1d7d <Gets+0x16>
    1da4:	c6 03 00             	movb   $0x0,(%rbx)
    1da7:	b8 00 00 00 00       	mov    $0x0,%eax
    1dac:	e8 67 ff ff ff       	callq  1d18 <save_term>
    1db1:	4c 89 e0             	mov    %r12,%rax
    1db4:	5b                   	pop    %rbx
    1db5:	5d                   	pop    %rbp
    1db6:	41 5c                	pop    %r12
    1db8:	c3                   	retq   

0000000000001db9 <notify_server>:
    1db9:	55                   	push   %rbp
    1dba:	53                   	push   %rbx
    1dbb:	48 81 ec 18 40 00 00 	sub    $0x4018,%rsp
    1dc2:	64 48 8b 04 25 28 00 	mov    %fs:0x28,%rax
    1dc9:	00 00 
    1dcb:	48 89 84 24 08 40 00 	mov    %rax,0x4008(%rsp)
    1dd2:	00 
    1dd3:	31 c0                	xor    %eax,%eax
    1dd5:	83 3d 0c 36 20 00 00 	cmpl   $0x0,0x20360c(%rip)        # 2053e8 <is_checker>
    1ddc:	0f 85 d2 00 00 00    	jne    1eb4 <notify_server+0xfb>
    1de2:	89 fb                	mov    %edi,%ebx
    1de4:	8b 05 1a 42 20 00    	mov    0x20421a(%rip),%eax        # 206004 <gets_cnt>
    1dea:	83 c0 64             	add    $0x64,%eax
    1ded:	3d 00 20 00 00       	cmp    $0x2000,%eax
    1df2:	0f 8f dd 00 00 00    	jg     1ed5 <notify_server+0x11c>
    1df8:	0f be 05 09 42 20 00 	movsbl 0x204209(%rip),%eax        # 206008 <target_prefix>
    1dff:	83 3d 62 35 20 00 00 	cmpl   $0x0,0x203562(%rip)        # 205368 <notify>
    1e06:	0f 84 e9 00 00 00    	je     1ef5 <notify_server+0x13c>
    1e0c:	8b 15 ce 35 20 00    	mov    0x2035ce(%rip),%edx        # 2053e0 <authkey>
    1e12:	85 db                	test   %ebx,%ebx
    1e14:	0f 84 e5 00 00 00    	je     1eff <notify_server+0x146>
    1e1a:	48 8d 2d 00 18 00 00 	lea    0x1800(%rip),%rbp        # 3621 <_IO_stdin_used+0x491>
    1e21:	48 89 e7             	mov    %rsp,%rdi
    1e24:	48 8d 0d d5 35 20 00 	lea    0x2035d5(%rip),%rcx        # 205400 <gets_buf>
    1e2b:	51                   	push   %rcx
    1e2c:	56                   	push   %rsi
    1e2d:	50                   	push   %rax
    1e2e:	52                   	push   %rdx
    1e2f:	49 89 e9             	mov    %rbp,%r9
    1e32:	44 8b 05 d7 31 20 00 	mov    0x2031d7(%rip),%r8d        # 205010 <target_id>
    1e39:	48 8d 0d eb 17 00 00 	lea    0x17eb(%rip),%rcx        # 362b <_IO_stdin_used+0x49b>
    1e40:	ba 00 20 00 00       	mov    $0x2000,%edx
    1e45:	be 01 00 00 00       	mov    $0x1,%esi
    1e4a:	b8 00 00 00 00       	mov    $0x0,%eax
    1e4f:	e8 dc f1 ff ff       	callq  1030 <_init+0x130>
    1e54:	48 83 c4 20          	add    $0x20,%rsp
    1e58:	83 3d 09 35 20 00 00 	cmpl   $0x0,0x203509(%rip)        # 205368 <notify>
    1e5f:	0f 84 df 00 00 00    	je     1f44 <notify_server+0x18b>
    1e65:	85 db                	test   %ebx,%ebx
    1e67:	0f 84 c6 00 00 00    	je     1f33 <notify_server+0x17a>
    1e6d:	48 89 e1             	mov    %rsp,%rcx
    1e70:	4c 8d 8c 24 00 20 00 	lea    0x2000(%rsp),%r9
    1e77:	00 
    1e78:	41 b8 00 00 00 00    	mov    $0x0,%r8d
    1e7e:	48 8b 15 a3 31 20 00 	mov    0x2031a3(%rip),%rdx        # 205028 <lab>
    1e85:	48 8b 35 a4 31 20 00 	mov    0x2031a4(%rip),%rsi        # 205030 <course>
    1e8c:	48 8b 3d 8d 31 20 00 	mov    0x20318d(%rip),%rdi        # 205020 <user_id>
    1e93:	e8 b4 11 00 00       	callq  304c <driver_post>
    1e98:	85 c0                	test   %eax,%eax
    1e9a:	78 6f                	js     1f0b <notify_server+0x152>
    1e9c:	48 8d 3d cd 18 00 00 	lea    0x18cd(%rip),%rdi        # 3770 <_IO_stdin_used+0x5e0>
    1ea3:	e8 b0 f0 ff ff       	callq  f58 <_init+0x58>
    1ea8:	48 8d 3d a4 17 00 00 	lea    0x17a4(%rip),%rdi        # 3653 <_IO_stdin_used+0x4c3>
    1eaf:	e8 a4 f0 ff ff       	callq  f58 <_init+0x58>
    1eb4:	48 8b 84 24 08 40 00 	mov    0x4008(%rsp),%rax
    1ebb:	00 
    1ebc:	64 48 33 04 25 28 00 	xor    %fs:0x28,%rax
    1ec3:	00 00 
    1ec5:	0f 85 07 01 00 00    	jne    1fd2 <notify_server+0x219>
    1ecb:	48 81 c4 18 40 00 00 	add    $0x4018,%rsp
    1ed2:	5b                   	pop    %rbx
    1ed3:	5d                   	pop    %rbp
    1ed4:	c3                   	retq   
    1ed5:	48 8d 35 64 18 00 00 	lea    0x1864(%rip),%rsi        # 3740 <_IO_stdin_used+0x5b0>
    1edc:	bf 01 00 00 00       	mov    $0x1,%edi
    1ee1:	b8 00 00 00 00       	mov    $0x0,%eax
    1ee6:	e8 fd f0 ff ff       	callq  fe8 <_init+0xe8>
    1eeb:	bf 01 00 00 00       	mov    $0x1,%edi
    1ef0:	e8 1b f1 ff ff       	callq  1010 <_init+0x110>
    1ef5:	ba ff ff ff ff       	mov    $0xffffffff,%edx
    1efa:	e9 13 ff ff ff       	jmpq   1e12 <notify_server+0x59>
    1eff:	48 8d 2d 20 17 00 00 	lea    0x1720(%rip),%rbp        # 3626 <_IO_stdin_used+0x496>
    1f06:	e9 16 ff ff ff       	jmpq   1e21 <notify_server+0x68>
    1f0b:	48 8d 94 24 00 20 00 	lea    0x2000(%rsp),%rdx
    1f12:	00 
    1f13:	48 8d 35 2d 17 00 00 	lea    0x172d(%rip),%rsi        # 3647 <_IO_stdin_used+0x4b7>
    1f1a:	bf 01 00 00 00       	mov    $0x1,%edi
    1f1f:	b8 00 00 00 00       	mov    $0x0,%eax
    1f24:	e8 bf f0 ff ff       	callq  fe8 <_init+0xe8>
    1f29:	bf 01 00 00 00       	mov    $0x1,%edi
    1f2e:	e8 dd f0 ff ff       	callq  1010 <_init+0x110>
    1f33:	48 8d 3d 23 17 00 00 	lea    0x1723(%rip),%rdi        # 365d <_IO_stdin_used+0x4cd>
    1f3a:	e8 19 f0 ff ff       	callq  f58 <_init+0x58>
    1f3f:	e9 70 ff ff ff       	jmpq   1eb4 <notify_server+0xfb>
    1f44:	48 89 ea             	mov    %rbp,%rdx
    1f47:	48 8d 35 5a 18 00 00 	lea    0x185a(%rip),%rsi        # 37a8 <_IO_stdin_used+0x618>
    1f4e:	bf 01 00 00 00       	mov    $0x1,%edi
    1f53:	b8 00 00 00 00       	mov    $0x0,%eax
    1f58:	e8 8b f0 ff ff       	callq  fe8 <_init+0xe8>
    1f5d:	48 8b 15 bc 30 20 00 	mov    0x2030bc(%rip),%rdx        # 205020 <user_id>
    1f64:	48 8d 35 f9 16 00 00 	lea    0x16f9(%rip),%rsi        # 3664 <_IO_stdin_used+0x4d4>
    1f6b:	bf 01 00 00 00       	mov    $0x1,%edi
    1f70:	b8 00 00 00 00       	mov    $0x0,%eax
    1f75:	e8 6e f0 ff ff       	callq  fe8 <_init+0xe8>
    1f7a:	48 8b 15 af 30 20 00 	mov    0x2030af(%rip),%rdx        # 205030 <course>
    1f81:	48 8d 35 e9 16 00 00 	lea    0x16e9(%rip),%rsi        # 3671 <_IO_stdin_used+0x4e1>
    1f88:	bf 01 00 00 00       	mov    $0x1,%edi
    1f8d:	b8 00 00 00 00       	mov    $0x0,%eax
    1f92:	e8 51 f0 ff ff       	callq  fe8 <_init+0xe8>
    1f97:	48 8b 15 8a 30 20 00 	mov    0x20308a(%rip),%rdx        # 205028 <lab>
    1f9e:	48 8d 35 d8 16 00 00 	lea    0x16d8(%rip),%rsi        # 367d <_IO_stdin_used+0x4ed>
    1fa5:	bf 01 00 00 00       	mov    $0x1,%edi
    1faa:	b8 00 00 00 00       	mov    $0x0,%eax
    1faf:	e8 34 f0 ff ff       	callq  fe8 <_init+0xe8>
    1fb4:	48 89 e2             	mov    %rsp,%rdx
    1fb7:	48 8d 35 c8 16 00 00 	lea    0x16c8(%rip),%rsi        # 3686 <_IO_stdin_used+0x4f6>
    1fbe:	bf 01 00 00 00       	mov    $0x1,%edi
    1fc3:	b8 00 00 00 00       	mov    $0x0,%eax
    1fc8:	e8 1b f0 ff ff       	callq  fe8 <_init+0xe8>
    1fcd:	e9 e2 fe ff ff       	jmpq   1eb4 <notify_server+0xfb>
    1fd2:	e8 91 ef ff ff       	callq  f68 <_init+0x68>

0000000000001fd7 <validate>:
    1fd7:	53                   	push   %rbx
    1fd8:	89 fb                	mov    %edi,%ebx
    1fda:	83 3d 07 34 20 00 00 	cmpl   $0x0,0x203407(%rip)        # 2053e8 <is_checker>
    1fe1:	74 72                	je     2055 <validate+0x7e>
    1fe3:	39 3d f3 33 20 00    	cmp    %edi,0x2033f3(%rip)        # 2053dc <vlevel>
    1fe9:	75 32                	jne    201d <validate+0x46>
    1feb:	8b 15 e7 33 20 00    	mov    0x2033e7(%rip),%edx        # 2053d8 <check_level>
    1ff1:	39 d7                	cmp    %edx,%edi
    1ff3:	75 3e                	jne    2033 <validate+0x5c>
    1ff5:	0f be 15 0c 40 20 00 	movsbl 0x20400c(%rip),%edx        # 206008 <target_prefix>
    1ffc:	4c 8d 05 fd 33 20 00 	lea    0x2033fd(%rip),%r8        # 205400 <gets_buf>
    2003:	89 f9                	mov    %edi,%ecx
    2005:	48 8d 35 a4 16 00 00 	lea    0x16a4(%rip),%rsi        # 36b0 <_IO_stdin_used+0x520>
    200c:	bf 01 00 00 00       	mov    $0x1,%edi
    2011:	b8 00 00 00 00       	mov    $0x0,%eax
    2016:	e8 cd ef ff ff       	callq  fe8 <_init+0xe8>
    201b:	5b                   	pop    %rbx
    201c:	c3                   	retq   
    201d:	48 8d 3d 6e 16 00 00 	lea    0x166e(%rip),%rdi        # 3692 <_IO_stdin_used+0x502>
    2024:	e8 2f ef ff ff       	callq  f58 <_init+0x58>
    2029:	b8 00 00 00 00       	mov    $0x0,%eax
    202e:	e8 fc fc ff ff       	callq  1d2f <check_fail>
    2033:	89 f9                	mov    %edi,%ecx
    2035:	48 8d 35 94 17 00 00 	lea    0x1794(%rip),%rsi        # 37d0 <_IO_stdin_used+0x640>
    203c:	bf 01 00 00 00       	mov    $0x1,%edi
    2041:	b8 00 00 00 00       	mov    $0x0,%eax
    2046:	e8 9d ef ff ff       	callq  fe8 <_init+0xe8>
    204b:	b8 00 00 00 00       	mov    $0x0,%eax
    2050:	e8 da fc ff ff       	callq  1d2f <check_fail>
    2055:	3b 3d 81 33 20 00    	cmp    0x203381(%rip),%edi        # 2053dc <vlevel>
    205b:	74 1a                	je     2077 <validate+0xa0>
    205d:	48 8d 3d 2e 16 00 00 	lea    0x162e(%rip),%rdi        # 3692 <_IO_stdin_used+0x502>
    2064:	e8 ef ee ff ff       	callq  f58 <_init+0x58>
    2069:	89 de                	mov    %ebx,%esi
    206b:	bf 00 00 00 00       	mov    $0x0,%edi
    2070:	e8 44 fd ff ff       	callq  1db9 <notify_server>
    2075:	eb a4                	jmp    201b <validate+0x44>
    2077:	0f be 0d 8a 3f 20 00 	movsbl 0x203f8a(%rip),%ecx        # 206008 <target_prefix>
    207e:	89 fa                	mov    %edi,%edx
    2080:	48 8d 35 71 17 00 00 	lea    0x1771(%rip),%rsi        # 37f8 <_IO_stdin_used+0x668>
    2087:	bf 01 00 00 00       	mov    $0x1,%edi
    208c:	b8 00 00 00 00       	mov    $0x0,%eax
    2091:	e8 52 ef ff ff       	callq  fe8 <_init+0xe8>
    2096:	89 de                	mov    %ebx,%esi
    2098:	bf 01 00 00 00       	mov    $0x1,%edi
    209d:	e8 17 fd ff ff       	callq  1db9 <notify_server>
    20a2:	e9 74 ff ff ff       	jmpq   201b <validate+0x44>

00000000000020a7 <fail>:
    20a7:	48 83 ec 08          	sub    $0x8,%rsp
    20ab:	83 3d 36 33 20 00 00 	cmpl   $0x0,0x203336(%rip)        # 2053e8 <is_checker>
    20b2:	75 11                	jne    20c5 <fail+0x1e>
    20b4:	89 fe                	mov    %edi,%esi
    20b6:	bf 00 00 00 00       	mov    $0x0,%edi
    20bb:	e8 f9 fc ff ff       	callq  1db9 <notify_server>
    20c0:	48 83 c4 08          	add    $0x8,%rsp
    20c4:	c3                   	retq   
    20c5:	b8 00 00 00 00       	mov    $0x0,%eax
    20ca:	e8 60 fc ff ff       	callq  1d2f <check_fail>

00000000000020cf <bushandler>:
    20cf:	48 83 ec 08          	sub    $0x8,%rsp
    20d3:	83 3d 0e 33 20 00 00 	cmpl   $0x0,0x20330e(%rip)        # 2053e8 <is_checker>
    20da:	74 16                	je     20f2 <bushandler+0x23>
    20dc:	48 8d 3d e2 15 00 00 	lea    0x15e2(%rip),%rdi        # 36c5 <_IO_stdin_used+0x535>
    20e3:	e8 70 ee ff ff       	callq  f58 <_init+0x58>
    20e8:	b8 00 00 00 00       	mov    $0x0,%eax
    20ed:	e8 3d fc ff ff       	callq  1d2f <check_fail>
    20f2:	48 8d 3d 37 17 00 00 	lea    0x1737(%rip),%rdi        # 3830 <_IO_stdin_used+0x6a0>
    20f9:	e8 5a ee ff ff       	callq  f58 <_init+0x58>
    20fe:	48 8d 3d ca 15 00 00 	lea    0x15ca(%rip),%rdi        # 36cf <_IO_stdin_used+0x53f>
    2105:	e8 4e ee ff ff       	callq  f58 <_init+0x58>
    210a:	be 00 00 00 00       	mov    $0x0,%esi
    210f:	bf 00 00 00 00       	mov    $0x0,%edi
    2114:	e8 a0 fc ff ff       	callq  1db9 <notify_server>
    2119:	bf 01 00 00 00       	mov    $0x1,%edi
    211e:	e8 ed ee ff ff       	callq  1010 <_init+0x110>

0000000000002123 <seghandler>:
    2123:	48 83 ec 08          	sub    $0x8,%rsp
    2127:	83 3d ba 32 20 00 00 	cmpl   $0x0,0x2032ba(%rip)        # 2053e8 <is_checker>
    212e:	74 16                	je     2146 <seghandler+0x23>
    2130:	48 8d 3d ae 15 00 00 	lea    0x15ae(%rip),%rdi        # 36e5 <_IO_stdin_used+0x555>
    2137:	e8 1c ee ff ff       	callq  f58 <_init+0x58>
    213c:	b8 00 00 00 00       	mov    $0x0,%eax
    2141:	e8 e9 fb ff ff       	callq  1d2f <check_fail>
    2146:	48 8d 3d 03 17 00 00 	lea    0x1703(%rip),%rdi        # 3850 <_IO_stdin_used+0x6c0>
    214d:	e8 06 ee ff ff       	callq  f58 <_init+0x58>
    2152:	48 8d 3d 76 15 00 00 	lea    0x1576(%rip),%rdi        # 36cf <_IO_stdin_used+0x53f>
    2159:	e8 fa ed ff ff       	callq  f58 <_init+0x58>
    215e:	be 00 00 00 00       	mov    $0x0,%esi
    2163:	bf 00 00 00 00       	mov    $0x0,%edi
    2168:	e8 4c fc ff ff       	callq  1db9 <notify_server>
    216d:	bf 01 00 00 00       	mov    $0x1,%edi
    2172:	e8 99 ee ff ff       	callq  1010 <_init+0x110>

0000000000002177 <illegalhandler>:
    2177:	48 83 ec 08          	sub    $0x8,%rsp
    217b:	83 3d 66 32 20 00 00 	cmpl   $0x0,0x203266(%rip)        # 2053e8 <is_checker>
    2182:	74 16                	je     219a <illegalhandler+0x23>
    2184:	48 8d 3d 6d 15 00 00 	lea    0x156d(%rip),%rdi        # 36f8 <_IO_stdin_used+0x568>
    218b:	e8 c8 ed ff ff       	callq  f58 <_init+0x58>
    2190:	b8 00 00 00 00       	mov    $0x0,%eax
    2195:	e8 95 fb ff ff       	callq  1d2f <check_fail>
    219a:	48 8d 3d d7 16 00 00 	lea    0x16d7(%rip),%rdi        # 3878 <_IO_stdin_used+0x6e8>
    21a1:	e8 b2 ed ff ff       	callq  f58 <_init+0x58>
    21a6:	48 8d 3d 22 15 00 00 	lea    0x1522(%rip),%rdi        # 36cf <_IO_stdin_used+0x53f>
    21ad:	e8 a6 ed ff ff       	callq  f58 <_init+0x58>
    21b2:	be 00 00 00 00       	mov    $0x0,%esi
    21b7:	bf 00 00 00 00       	mov    $0x0,%edi
    21bc:	e8 f8 fb ff ff       	callq  1db9 <notify_server>
    21c1:	bf 01 00 00 00       	mov    $0x1,%edi
    21c6:	e8 45 ee ff ff       	callq  1010 <_init+0x110>

00000000000021cb <sigalrmhandler>:
    21cb:	48 83 ec 08          	sub    $0x8,%rsp
    21cf:	83 3d 12 32 20 00 00 	cmpl   $0x0,0x203212(%rip)        # 2053e8 <is_checker>
    21d6:	74 16                	je     21ee <sigalrmhandler+0x23>
    21d8:	48 8d 3d 2d 15 00 00 	lea    0x152d(%rip),%rdi        # 370c <_IO_stdin_used+0x57c>
    21df:	e8 74 ed ff ff       	callq  f58 <_init+0x58>
    21e4:	b8 00 00 00 00       	mov    $0x0,%eax
    21e9:	e8 41 fb ff ff       	callq  1d2f <check_fail>
    21ee:	ba 05 00 00 00       	mov    $0x5,%edx
    21f3:	48 8d 35 ae 16 00 00 	lea    0x16ae(%rip),%rsi        # 38a8 <_IO_stdin_used+0x718>
    21fa:	bf 01 00 00 00       	mov    $0x1,%edi
    21ff:	b8 00 00 00 00       	mov    $0x0,%eax
    2204:	e8 df ed ff ff       	callq  fe8 <_init+0xe8>
    2209:	be 00 00 00 00       	mov    $0x0,%esi
    220e:	bf 00 00 00 00       	mov    $0x0,%edi
    2213:	e8 a1 fb ff ff       	callq  1db9 <notify_server>
    2218:	bf 01 00 00 00       	mov    $0x1,%edi
    221d:	e8 ee ed ff ff       	callq  1010 <_init+0x110>

0000000000002222 <launch>:
    2222:	55                   	push   %rbp
    2223:	48 89 e5             	mov    %rsp,%rbp
    2226:	48 83 ec 10          	sub    $0x10,%rsp
    222a:	48 89 fa             	mov    %rdi,%rdx
    222d:	64 48 8b 04 25 28 00 	mov    %fs:0x28,%rax
    2234:	00 00 
    2236:	48 89 45 f8          	mov    %rax,-0x8(%rbp)
    223a:	31 c0                	xor    %eax,%eax
    223c:	48 8d 47 1e          	lea    0x1e(%rdi),%rax
    2240:	48 83 e0 f0          	and    $0xfffffffffffffff0,%rax
    2244:	48 29 c4             	sub    %rax,%rsp
    2247:	48 8d 7c 24 0f       	lea    0xf(%rsp),%rdi
    224c:	48 83 e7 f0          	and    $0xfffffffffffffff0,%rdi
    2250:	be f4 00 00 00       	mov    $0xf4,%esi
    2255:	e8 1e ed ff ff       	callq  f78 <_init+0x78>
    225a:	48 8b 05 1f 31 20 00 	mov    0x20311f(%rip),%rax        # 205380 <stdin@@GLIBC_2.2.5>
    2261:	48 39 05 68 31 20 00 	cmp    %rax,0x203168(%rip)        # 2053d0 <infile>
    2268:	74 3a                	je     22a4 <launch+0x82>
    226a:	c7 05 68 31 20 00 00 	movl   $0x0,0x203168(%rip)        # 2053dc <vlevel>
    2271:	00 00 00 
    2274:	b8 00 00 00 00       	mov    $0x0,%eax
    2279:	e8 16 fa ff ff       	callq  1c94 <test>
    227e:	83 3d 63 31 20 00 00 	cmpl   $0x0,0x203163(%rip)        # 2053e8 <is_checker>
    2285:	75 35                	jne    22bc <launch+0x9a>
    2287:	48 8d 3d 9e 14 00 00 	lea    0x149e(%rip),%rdi        # 372c <_IO_stdin_used+0x59c>
    228e:	e8 c5 ec ff ff       	callq  f58 <_init+0x58>
    2293:	48 8b 45 f8          	mov    -0x8(%rbp),%rax
    2297:	64 48 33 04 25 28 00 	xor    %fs:0x28,%rax
    229e:	00 00 
    22a0:	75 30                	jne    22d2 <launch+0xb0>
    22a2:	c9                   	leaveq 
    22a3:	c3                   	retq   
    22a4:	48 8d 35 69 14 00 00 	lea    0x1469(%rip),%rsi        # 3714 <_IO_stdin_used+0x584>
    22ab:	bf 01 00 00 00       	mov    $0x1,%edi
    22b0:	b8 00 00 00 00       	mov    $0x0,%eax
    22b5:	e8 2e ed ff ff       	callq  fe8 <_init+0xe8>
    22ba:	eb ae                	jmp    226a <launch+0x48>
    22bc:	48 8d 3d 5e 14 00 00 	lea    0x145e(%rip),%rdi        # 3721 <_IO_stdin_used+0x591>
    22c3:	e8 90 ec ff ff       	callq  f58 <_init+0x58>
    22c8:	b8 00 00 00 00       	mov    $0x0,%eax
    22cd:	e8 5d fa ff ff       	callq  1d2f <check_fail>
    22d2:	e8 91 ec ff ff       	callq  f68 <_init+0x68>

00000000000022d7 <stable_launch>:
    22d7:	53                   	push   %rbx
    22d8:	48 89 3d e9 30 20 00 	mov    %rdi,0x2030e9(%rip)        # 2053c8 <global_offset>
    22df:	41 b9 00 00 00 00    	mov    $0x0,%r9d
    22e5:	41 b8 00 00 00 00    	mov    $0x0,%r8d
    22eb:	b9 32 01 00 00       	mov    $0x132,%ecx
    22f0:	ba 07 00 00 00       	mov    $0x7,%edx
    22f5:	be 00 00 10 00       	mov    $0x100000,%esi
    22fa:	bf 00 60 58 55       	mov    $0x55586000,%edi
    22ff:	e8 6c ec ff ff       	callq  f70 <_init+0x70>
    2304:	48 89 c3             	mov    %rax,%rbx
    2307:	48 3d 00 60 58 55    	cmp    $0x55586000,%rax
    230d:	75 43                	jne    2352 <stable_launch+0x7b>
    230f:	48 8d 90 f8 ff 0f 00 	lea    0xffff8(%rax),%rdx
    2316:	48 89 15 f3 3c 20 00 	mov    %rdx,0x203cf3(%rip)        # 206010 <stack_top>
    231d:	48 89 e0             	mov    %rsp,%rax
    2320:	48 89 d4             	mov    %rdx,%rsp
    2323:	48 89 c2             	mov    %rax,%rdx
    2326:	48 89 15 93 30 20 00 	mov    %rdx,0x203093(%rip)        # 2053c0 <global_save_stack>
    232d:	48 8b 3d 94 30 20 00 	mov    0x203094(%rip),%rdi        # 2053c8 <global_offset>
    2334:	e8 e9 fe ff ff       	callq  2222 <launch>
    2339:	48 8b 05 80 30 20 00 	mov    0x203080(%rip),%rax        # 2053c0 <global_save_stack>
    2340:	48 89 c4             	mov    %rax,%rsp
    2343:	be 00 00 10 00       	mov    $0x100000,%esi
    2348:	48 89 df             	mov    %rbx,%rdi
    234b:	e8 90 ec ff ff       	callq  fe0 <_init+0xe0>
    2350:	5b                   	pop    %rbx
    2351:	c3                   	retq   
    2352:	be 00 00 10 00       	mov    $0x100000,%esi
    2357:	48 89 c7             	mov    %rax,%rdi
    235a:	e8 81 ec ff ff       	callq  fe0 <_init+0xe0>
    235f:	b9 00 60 58 55       	mov    $0x55586000,%ecx
    2364:	48 8d 15 75 15 00 00 	lea    0x1575(%rip),%rdx        # 38e0 <_IO_stdin_used+0x750>
    236b:	be 01 00 00 00       	mov    $0x1,%esi
    2370:	48 8b 3d 29 30 20 00 	mov    0x203029(%rip),%rdi        # 2053a0 <stderr@@GLIBC_2.2.5>
    2377:	b8 00 00 00 00       	mov    $0x0,%eax
    237c:	e8 9f ec ff ff       	callq  1020 <_init+0x120>
    2381:	bf 01 00 00 00       	mov    $0x1,%edi
    2386:	e8 85 ec ff ff       	callq  1010 <_init+0x110>

000000000000238b <rio_readinitb>:
    238b:	89 37                	mov    %esi,(%rdi)
    238d:	c7 47 04 00 00 00 00 	movl   $0x0,0x4(%rdi)
    2394:	48 8d 47 10          	lea    0x10(%rdi),%rax
    2398:	48 89 47 08          	mov    %rax,0x8(%rdi)
    239c:	c3                   	retq   

000000000000239d <sigalrm_handler>:
    239d:	48 83 ec 08          	sub    $0x8,%rsp
    23a1:	b9 00 00 00 00       	mov    $0x0,%ecx
    23a6:	48 8d 15 73 15 00 00 	lea    0x1573(%rip),%rdx        # 3920 <trans_char+0x10>
    23ad:	be 01 00 00 00       	mov    $0x1,%esi
    23b2:	48 8b 3d e7 2f 20 00 	mov    0x202fe7(%rip),%rdi        # 2053a0 <stderr@@GLIBC_2.2.5>
    23b9:	b8 00 00 00 00       	mov    $0x0,%eax
    23be:	e8 5d ec ff ff       	callq  1020 <_init+0x120>
    23c3:	bf 01 00 00 00       	mov    $0x1,%edi
    23c8:	e8 43 ec ff ff       	callq  1010 <_init+0x110>

00000000000023cd <rio_writen>:
    23cd:	41 55                	push   %r13
    23cf:	41 54                	push   %r12
    23d1:	55                   	push   %rbp
    23d2:	53                   	push   %rbx
    23d3:	48 83 ec 08          	sub    $0x8,%rsp
    23d7:	41 89 fc             	mov    %edi,%r12d
    23da:	49 89 d5             	mov    %rdx,%r13
    23dd:	48 89 f5             	mov    %rsi,%rbp
    23e0:	48 89 d3             	mov    %rdx,%rbx
    23e3:	eb 06                	jmp    23eb <rio_writen+0x1e>
    23e5:	48 29 c3             	sub    %rax,%rbx
    23e8:	48 01 c5             	add    %rax,%rbp
    23eb:	48 85 db             	test   %rbx,%rbx
    23ee:	74 24                	je     2414 <rio_writen+0x47>
    23f0:	48 89 da             	mov    %rbx,%rdx
    23f3:	48 89 ee             	mov    %rbp,%rsi
    23f6:	44 89 e7             	mov    %r12d,%edi
    23f9:	e8 62 eb ff ff       	callq  f60 <_init+0x60>
    23fe:	48 85 c0             	test   %rax,%rax
    2401:	7f e2                	jg     23e5 <rio_writen+0x18>
    2403:	e8 30 eb ff ff       	callq  f38 <_init+0x38>
    2408:	83 38 04             	cmpl   $0x4,(%rax)
    240b:	75 15                	jne    2422 <rio_writen+0x55>
    240d:	b8 00 00 00 00       	mov    $0x0,%eax
    2412:	eb d1                	jmp    23e5 <rio_writen+0x18>
    2414:	4c 89 e8             	mov    %r13,%rax
    2417:	48 83 c4 08          	add    $0x8,%rsp
    241b:	5b                   	pop    %rbx
    241c:	5d                   	pop    %rbp
    241d:	41 5c                	pop    %r12
    241f:	41 5d                	pop    %r13
    2421:	c3                   	retq   
    2422:	48 c7 c0 ff ff ff ff 	mov    $0xffffffffffffffff,%rax
    2429:	eb ec                	jmp    2417 <rio_writen+0x4a>

000000000000242b <rio_read>:
    242b:	41 55                	push   %r13
    242d:	41 54                	push   %r12
    242f:	55                   	push   %rbp
    2430:	53                   	push   %rbx
    2431:	48 83 ec 08          	sub    $0x8,%rsp
    2435:	48 89 fb             	mov    %rdi,%rbx
    2438:	49 89 f5             	mov    %rsi,%r13
    243b:	49 89 d4             	mov    %rdx,%r12
    243e:	eb 0a                	jmp    244a <rio_read+0x1f>
    2440:	e8 f3 ea ff ff       	callq  f38 <_init+0x38>
    2445:	83 38 04             	cmpl   $0x4,(%rax)
    2448:	75 5c                	jne    24a6 <rio_read+0x7b>
    244a:	8b 6b 04             	mov    0x4(%rbx),%ebp
    244d:	85 ed                	test   %ebp,%ebp
    244f:	7f 24                	jg     2475 <rio_read+0x4a>
    2451:	48 8d 6b 10          	lea    0x10(%rbx),%rbp
    2455:	8b 3b                	mov    (%rbx),%edi
    2457:	ba 00 20 00 00       	mov    $0x2000,%edx
    245c:	48 89 ee             	mov    %rbp,%rsi
    245f:	e8 2c eb ff ff       	callq  f90 <_init+0x90>
    2464:	89 43 04             	mov    %eax,0x4(%rbx)
    2467:	85 c0                	test   %eax,%eax
    2469:	78 d5                	js     2440 <rio_read+0x15>
    246b:	85 c0                	test   %eax,%eax
    246d:	74 40                	je     24af <rio_read+0x84>
    246f:	48 89 6b 08          	mov    %rbp,0x8(%rbx)
    2473:	eb d5                	jmp    244a <rio_read+0x1f>
    2475:	89 e8                	mov    %ebp,%eax
    2477:	49 39 c4             	cmp    %rax,%r12
    247a:	77 03                	ja     247f <rio_read+0x54>
    247c:	44 89 e5             	mov    %r12d,%ebp
    247f:	4c 63 e5             	movslq %ebp,%r12
    2482:	48 8b 73 08          	mov    0x8(%rbx),%rsi
    2486:	4c 89 e2             	mov    %r12,%rdx
    2489:	4c 89 ef             	mov    %r13,%rdi
    248c:	e8 27 eb ff ff       	callq  fb8 <_init+0xb8>
    2491:	4c 01 63 08          	add    %r12,0x8(%rbx)
    2495:	29 6b 04             	sub    %ebp,0x4(%rbx)
    2498:	4c 89 e0             	mov    %r12,%rax
    249b:	48 83 c4 08          	add    $0x8,%rsp
    249f:	5b                   	pop    %rbx
    24a0:	5d                   	pop    %rbp
    24a1:	41 5c                	pop    %r12
    24a3:	41 5d                	pop    %r13
    24a5:	c3                   	retq   
    24a6:	48 c7 c0 ff ff ff ff 	mov    $0xffffffffffffffff,%rax
    24ad:	eb ec                	jmp    249b <rio_read+0x70>
    24af:	b8 00 00 00 00       	mov    $0x0,%eax
    24b4:	eb e5                	jmp    249b <rio_read+0x70>

00000000000024b6 <rio_readlineb>:
    24b6:	41 55                	push   %r13
    24b8:	41 54                	push   %r12
    24ba:	55                   	push   %rbp
    24bb:	53                   	push   %rbx
    24bc:	48 83 ec 18          	sub    $0x18,%rsp
    24c0:	49 89 fd             	mov    %rdi,%r13
    24c3:	49 89 d4             	mov    %rdx,%r12
    24c6:	64 48 8b 04 25 28 00 	mov    %fs:0x28,%rax
    24cd:	00 00 
    24cf:	48 89 44 24 08       	mov    %rax,0x8(%rsp)
    24d4:	31 c0                	xor    %eax,%eax
    24d6:	48 89 f5             	mov    %rsi,%rbp
    24d9:	bb 01 00 00 00       	mov    $0x1,%ebx
    24de:	4c 39 e3             	cmp    %r12,%rbx
    24e1:	73 47                	jae    252a <rio_readlineb+0x74>
    24e3:	48 8d 74 24 07       	lea    0x7(%rsp),%rsi
    24e8:	ba 01 00 00 00       	mov    $0x1,%edx
    24ed:	4c 89 ef             	mov    %r13,%rdi
    24f0:	e8 36 ff ff ff       	callq  242b <rio_read>
    24f5:	83 f8 01             	cmp    $0x1,%eax
    24f8:	75 1c                	jne    2516 <rio_readlineb+0x60>
    24fa:	48 8d 45 01          	lea    0x1(%rbp),%rax
    24fe:	0f b6 54 24 07       	movzbl 0x7(%rsp),%edx
    2503:	88 55 00             	mov    %dl,0x0(%rbp)
    2506:	80 7c 24 07 0a       	cmpb   $0xa,0x7(%rsp)
    250b:	74 1a                	je     2527 <rio_readlineb+0x71>
    250d:	48 83 c3 01          	add    $0x1,%rbx
    2511:	48 89 c5             	mov    %rax,%rbp
    2514:	eb c8                	jmp    24de <rio_readlineb+0x28>
    2516:	85 c0                	test   %eax,%eax
    2518:	75 32                	jne    254c <rio_readlineb+0x96>
    251a:	48 83 fb 01          	cmp    $0x1,%rbx
    251e:	75 0a                	jne    252a <rio_readlineb+0x74>
    2520:	b8 00 00 00 00       	mov    $0x0,%eax
    2525:	eb 0a                	jmp    2531 <rio_readlineb+0x7b>
    2527:	48 89 c5             	mov    %rax,%rbp
    252a:	c6 45 00 00          	movb   $0x0,0x0(%rbp)
    252e:	48 89 d8             	mov    %rbx,%rax
    2531:	48 8b 4c 24 08       	mov    0x8(%rsp),%rcx
    2536:	64 48 33 0c 25 28 00 	xor    %fs:0x28,%rcx
    253d:	00 00 
    253f:	75 14                	jne    2555 <rio_readlineb+0x9f>
    2541:	48 83 c4 18          	add    $0x18,%rsp
    2545:	5b                   	pop    %rbx
    2546:	5d                   	pop    %rbp
    2547:	41 5c                	pop    %r12
    2549:	41 5d                	pop    %r13
    254b:	c3                   	retq   
    254c:	48 c7 c0 ff ff ff ff 	mov    $0xffffffffffffffff,%rax
    2553:	eb dc                	jmp    2531 <rio_readlineb+0x7b>
    2555:	e8 0e ea ff ff       	callq  f68 <_init+0x68>

000000000000255a <urlencode>:
    255a:	41 54                	push   %r12
    255c:	55                   	push   %rbp
    255d:	53                   	push   %rbx
    255e:	48 83 ec 10          	sub    $0x10,%rsp
    2562:	48 89 fb             	mov    %rdi,%rbx
    2565:	48 89 f5             	mov    %rsi,%rbp
    2568:	64 48 8b 04 25 28 00 	mov    %fs:0x28,%rax
    256f:	00 00 
    2571:	48 89 44 24 08       	mov    %rax,0x8(%rsp)
    2576:	31 c0                	xor    %eax,%eax
    2578:	48 c7 c1 ff ff ff ff 	mov    $0xffffffffffffffff,%rcx
    257f:	f2 ae                	repnz scas %es:(%rdi),%al
    2581:	48 f7 d1             	not    %rcx
    2584:	8d 41 ff             	lea    -0x1(%rcx),%eax
    2587:	eb 0f                	jmp    2598 <urlencode+0x3e>
    2589:	44 88 45 00          	mov    %r8b,0x0(%rbp)
    258d:	48 8d 6d 01          	lea    0x1(%rbp),%rbp
    2591:	48 83 c3 01          	add    $0x1,%rbx
    2595:	44 89 e0             	mov    %r12d,%eax
    2598:	44 8d 60 ff          	lea    -0x1(%rax),%r12d
    259c:	85 c0                	test   %eax,%eax
    259e:	0f 84 a8 00 00 00    	je     264c <urlencode+0xf2>
    25a4:	44 0f b6 03          	movzbl (%rbx),%r8d
    25a8:	41 80 f8 2a          	cmp    $0x2a,%r8b
    25ac:	0f 94 c2             	sete   %dl
    25af:	41 80 f8 2d          	cmp    $0x2d,%r8b
    25b3:	0f 94 c0             	sete   %al
    25b6:	08 c2                	or     %al,%dl
    25b8:	75 cf                	jne    2589 <urlencode+0x2f>
    25ba:	41 80 f8 2e          	cmp    $0x2e,%r8b
    25be:	74 c9                	je     2589 <urlencode+0x2f>
    25c0:	41 80 f8 5f          	cmp    $0x5f,%r8b
    25c4:	74 c3                	je     2589 <urlencode+0x2f>
    25c6:	41 8d 40 d0          	lea    -0x30(%r8),%eax
    25ca:	3c 09                	cmp    $0x9,%al
    25cc:	76 bb                	jbe    2589 <urlencode+0x2f>
    25ce:	41 8d 40 bf          	lea    -0x41(%r8),%eax
    25d2:	3c 19                	cmp    $0x19,%al
    25d4:	76 b3                	jbe    2589 <urlencode+0x2f>
    25d6:	41 8d 40 9f          	lea    -0x61(%r8),%eax
    25da:	3c 19                	cmp    $0x19,%al
    25dc:	76 ab                	jbe    2589 <urlencode+0x2f>
    25de:	41 80 f8 20          	cmp    $0x20,%r8b
    25e2:	74 56                	je     263a <urlencode+0xe0>
    25e4:	41 8d 40 e0          	lea    -0x20(%r8),%eax
    25e8:	3c 5f                	cmp    $0x5f,%al
    25ea:	0f 96 c2             	setbe  %dl
    25ed:	41 80 f8 09          	cmp    $0x9,%r8b
    25f1:	0f 94 c0             	sete   %al
    25f4:	08 c2                	or     %al,%dl
    25f6:	74 4f                	je     2647 <urlencode+0xed>
    25f8:	48 89 e7             	mov    %rsp,%rdi
    25fb:	45 0f b6 c0          	movzbl %r8b,%r8d
    25ff:	48 8d 0d b2 13 00 00 	lea    0x13b2(%rip),%rcx        # 39b8 <trans_char+0xa8>
    2606:	ba 08 00 00 00       	mov    $0x8,%edx
    260b:	be 01 00 00 00       	mov    $0x1,%esi
    2610:	b8 00 00 00 00       	mov    $0x0,%eax
    2615:	e8 16 ea ff ff       	callq  1030 <_init+0x130>
    261a:	0f b6 04 24          	movzbl (%rsp),%eax
    261e:	88 45 00             	mov    %al,0x0(%rbp)
    2621:	0f b6 44 24 01       	movzbl 0x1(%rsp),%eax
    2626:	88 45 01             	mov    %al,0x1(%rbp)
    2629:	0f b6 44 24 02       	movzbl 0x2(%rsp),%eax
    262e:	88 45 02             	mov    %al,0x2(%rbp)
    2631:	48 8d 6d 03          	lea    0x3(%rbp),%rbp
    2635:	e9 57 ff ff ff       	jmpq   2591 <urlencode+0x37>
    263a:	c6 45 00 2b          	movb   $0x2b,0x0(%rbp)
    263e:	48 8d 6d 01          	lea    0x1(%rbp),%rbp
    2642:	e9 4a ff ff ff       	jmpq   2591 <urlencode+0x37>
    2647:	b8 ff ff ff ff       	mov    $0xffffffff,%eax
    264c:	48 8b 74 24 08       	mov    0x8(%rsp),%rsi
    2651:	64 48 33 34 25 28 00 	xor    %fs:0x28,%rsi
    2658:	00 00 
    265a:	75 09                	jne    2665 <urlencode+0x10b>
    265c:	48 83 c4 10          	add    $0x10,%rsp
    2660:	5b                   	pop    %rbx
    2661:	5d                   	pop    %rbp
    2662:	41 5c                	pop    %r12
    2664:	c3                   	retq   
    2665:	e8 fe e8 ff ff       	callq  f68 <_init+0x68>

000000000000266a <submitr>:
    266a:	41 57                	push   %r15
    266c:	41 56                	push   %r14
    266e:	41 55                	push   %r13
    2670:	41 54                	push   %r12
    2672:	55                   	push   %rbp
    2673:	53                   	push   %rbx
    2674:	48 81 ec 68 a0 00 00 	sub    $0xa068,%rsp
    267b:	49 89 fd             	mov    %rdi,%r13
    267e:	89 74 24 14          	mov    %esi,0x14(%rsp)
    2682:	49 89 d7             	mov    %rdx,%r15
    2685:	48 89 4c 24 08       	mov    %rcx,0x8(%rsp)
    268a:	4c 89 44 24 18       	mov    %r8,0x18(%rsp)
    268f:	4d 89 ce             	mov    %r9,%r14
    2692:	48 8b 9c 24 a0 a0 00 	mov    0xa0a0(%rsp),%rbx
    2699:	00 
    269a:	64 48 8b 04 25 28 00 	mov    %fs:0x28,%rax
    26a1:	00 00 
    26a3:	48 89 84 24 58 a0 00 	mov    %rax,0xa058(%rsp)
    26aa:	00 
    26ab:	31 c0                	xor    %eax,%eax
    26ad:	c7 44 24 2c 00 00 00 	movl   $0x0,0x2c(%rsp)
    26b4:	00 
    26b5:	ba 00 00 00 00       	mov    $0x0,%edx
    26ba:	be 01 00 00 00       	mov    $0x1,%esi
    26bf:	bf 02 00 00 00       	mov    $0x2,%edi
    26c4:	e8 6f e9 ff ff       	callq  1038 <_init+0x138>
    26c9:	85 c0                	test   %eax,%eax
    26cb:	0f 88 c8 01 00 00    	js     2899 <submitr+0x22f>
    26d1:	89 c5                	mov    %eax,%ebp
    26d3:	4c 89 ef             	mov    %r13,%rdi
    26d6:	e8 c5 e8 ff ff       	callq  fa0 <_init+0xa0>
    26db:	48 85 c0             	test   %rax,%rax
    26de:	0f 84 03 02 00 00    	je     28e7 <submitr+0x27d>
    26e4:	4c 8d 64 24 30       	lea    0x30(%rsp),%r12
    26e9:	48 c7 44 24 30 00 00 	movq   $0x0,0x30(%rsp)
    26f0:	00 00 
    26f2:	48 c7 44 24 38 00 00 	movq   $0x0,0x38(%rsp)
    26f9:	00 00 
    26fb:	66 c7 44 24 30 02 00 	movw   $0x2,0x30(%rsp)
    2702:	48 63 50 14          	movslq 0x14(%rax),%rdx
    2706:	48 8b 40 18          	mov    0x18(%rax),%rax
    270a:	48 8b 30             	mov    (%rax),%rsi
    270d:	48 8d 7c 24 34       	lea    0x34(%rsp),%rdi
    2712:	b9 0c 00 00 00       	mov    $0xc,%ecx
    2717:	e8 8c e8 ff ff       	callq  fa8 <_init+0xa8>
    271c:	0f b7 44 24 14       	movzwl 0x14(%rsp),%eax
    2721:	66 c1 c8 08          	ror    $0x8,%ax
    2725:	66 89 44 24 32       	mov    %ax,0x32(%rsp)
    272a:	ba 10 00 00 00       	mov    $0x10,%edx
    272f:	4c 89 e6             	mov    %r12,%rsi
    2732:	89 ef                	mov    %ebp,%edi
    2734:	e8 df e8 ff ff       	callq  1018 <_init+0x118>
    2739:	85 c0                	test   %eax,%eax
    273b:	0f 88 0d 02 00 00    	js     294e <submitr+0x2e4>
    2741:	48 c7 c6 ff ff ff ff 	mov    $0xffffffffffffffff,%rsi
    2748:	b8 00 00 00 00       	mov    $0x0,%eax
    274d:	48 89 f1             	mov    %rsi,%rcx
    2750:	4c 89 f7             	mov    %r14,%rdi
    2753:	f2 ae                	repnz scas %es:(%rdi),%al
    2755:	48 f7 d1             	not    %rcx
    2758:	48 89 ca             	mov    %rcx,%rdx
    275b:	48 89 f1             	mov    %rsi,%rcx
    275e:	4c 89 ff             	mov    %r15,%rdi
    2761:	f2 ae                	repnz scas %es:(%rdi),%al
    2763:	48 f7 d1             	not    %rcx
    2766:	49 89 c8             	mov    %rcx,%r8
    2769:	48 89 f1             	mov    %rsi,%rcx
    276c:	48 8b 7c 24 08       	mov    0x8(%rsp),%rdi
    2771:	f2 ae                	repnz scas %es:(%rdi),%al
    2773:	48 f7 d1             	not    %rcx
    2776:	4d 8d 44 08 fe       	lea    -0x2(%r8,%rcx,1),%r8
    277b:	48 89 f1             	mov    %rsi,%rcx
    277e:	48 8b 7c 24 18       	mov    0x18(%rsp),%rdi
    2783:	f2 ae                	repnz scas %es:(%rdi),%al
    2785:	48 89 c8             	mov    %rcx,%rax
    2788:	48 f7 d0             	not    %rax
    278b:	49 8d 4c 00 ff       	lea    -0x1(%r8,%rax,1),%rcx
    2790:	48 8d 44 52 fd       	lea    -0x3(%rdx,%rdx,2),%rax
    2795:	48 8d 84 01 80 00 00 	lea    0x80(%rcx,%rax,1),%rax
    279c:	00 
    279d:	48 3d 00 20 00 00    	cmp    $0x2000,%rax
    27a3:	0f 87 fe 01 00 00    	ja     29a7 <submitr+0x33d>
    27a9:	48 8d b4 24 50 40 00 	lea    0x4050(%rsp),%rsi
    27b0:	00 
    27b1:	b9 00 04 00 00       	mov    $0x400,%ecx
    27b6:	b8 00 00 00 00       	mov    $0x0,%eax
    27bb:	48 89 f7             	mov    %rsi,%rdi
    27be:	f3 48 ab             	rep stos %rax,%es:(%rdi)
    27c1:	4c 89 f7             	mov    %r14,%rdi
    27c4:	e8 91 fd ff ff       	callq  255a <urlencode>
    27c9:	85 c0                	test   %eax,%eax
    27cb:	0f 88 48 02 00 00    	js     2a19 <submitr+0x3af>
    27d1:	4c 8d a4 24 50 20 00 	lea    0x2050(%rsp),%r12
    27d8:	00 
    27d9:	41 55                	push   %r13
    27db:	48 8d 84 24 58 40 00 	lea    0x4058(%rsp),%rax
    27e2:	00 
    27e3:	50                   	push   %rax
    27e4:	4d 89 f9             	mov    %r15,%r9
    27e7:	4c 8b 44 24 18       	mov    0x18(%rsp),%r8
    27ec:	48 8d 0d 55 11 00 00 	lea    0x1155(%rip),%rcx        # 3948 <trans_char+0x38>
    27f3:	ba 00 20 00 00       	mov    $0x2000,%edx
    27f8:	be 01 00 00 00       	mov    $0x1,%esi
    27fd:	4c 89 e7             	mov    %r12,%rdi
    2800:	b8 00 00 00 00       	mov    $0x0,%eax
    2805:	e8 26 e8 ff ff       	callq  1030 <_init+0x130>
    280a:	b8 00 00 00 00       	mov    $0x0,%eax
    280f:	48 c7 c1 ff ff ff ff 	mov    $0xffffffffffffffff,%rcx
    2816:	4c 89 e7             	mov    %r12,%rdi
    2819:	f2 ae                	repnz scas %es:(%rdi),%al
    281b:	48 f7 d1             	not    %rcx
    281e:	48 8d 51 ff          	lea    -0x1(%rcx),%rdx
    2822:	4c 89 e6             	mov    %r12,%rsi
    2825:	89 ef                	mov    %ebp,%edi
    2827:	e8 a1 fb ff ff       	callq  23cd <rio_writen>
    282c:	48 83 c4 10          	add    $0x10,%rsp
    2830:	48 85 c0             	test   %rax,%rax
    2833:	0f 88 6a 02 00 00    	js     2aa3 <submitr+0x439>
    2839:	4c 8d 64 24 40       	lea    0x40(%rsp),%r12
    283e:	89 ee                	mov    %ebp,%esi
    2840:	4c 89 e7             	mov    %r12,%rdi
    2843:	e8 43 fb ff ff       	callq  238b <rio_readinitb>
    2848:	48 8d b4 24 50 20 00 	lea    0x2050(%rsp),%rsi
    284f:	00 
    2850:	ba 00 20 00 00       	mov    $0x2000,%edx
    2855:	4c 89 e7             	mov    %r12,%rdi
    2858:	e8 59 fc ff ff       	callq  24b6 <rio_readlineb>
    285d:	48 85 c0             	test   %rax,%rax
    2860:	0f 8e ab 02 00 00    	jle    2b11 <submitr+0x4a7>
    2866:	48 8d 4c 24 2c       	lea    0x2c(%rsp),%rcx
    286b:	48 8d 94 24 50 60 00 	lea    0x6050(%rsp),%rdx
    2872:	00 
    2873:	48 8d bc 24 50 20 00 	lea    0x2050(%rsp),%rdi
    287a:	00 
    287b:	4c 8d 84 24 50 80 00 	lea    0x8050(%rsp),%r8
    2882:	00 
    2883:	48 8d 35 35 11 00 00 	lea    0x1135(%rip),%rsi        # 39bf <trans_char+0xaf>
    288a:	b8 00 00 00 00       	mov    $0x0,%eax
    288f:	e8 44 e7 ff ff       	callq  fd8 <_init+0xd8>
    2894:	e9 b3 03 00 00       	jmpq   2c4c <submitr+0x5e2>
    2899:	48 b8 45 72 72 6f 72 	movabs $0x43203a726f727245,%rax
    28a0:	3a 20 43 
    28a3:	48 89 03             	mov    %rax,(%rbx)
    28a6:	48 b8 6c 69 65 6e 74 	movabs $0x6e7520746e65696c,%rax
    28ad:	20 75 6e 
    28b0:	48 89 43 08          	mov    %rax,0x8(%rbx)
    28b4:	48 b8 61 62 6c 65 20 	movabs $0x206f7420656c6261,%rax
    28bb:	74 6f 20 
    28be:	48 89 43 10          	mov    %rax,0x10(%rbx)
    28c2:	48 b8 63 72 65 61 74 	movabs $0x7320657461657263,%rax
    28c9:	65 20 73 
    28cc:	48 89 43 18          	mov    %rax,0x18(%rbx)
    28d0:	c7 43 20 6f 63 6b 65 	movl   $0x656b636f,0x20(%rbx)
    28d7:	66 c7 43 24 74 00    	movw   $0x74,0x24(%rbx)
    28dd:	b8 ff ff ff ff       	mov    $0xffffffff,%eax
    28e2:	e9 18 03 00 00       	jmpq   2bff <submitr+0x595>
    28e7:	48 b8 45 72 72 6f 72 	movabs $0x44203a726f727245,%rax
    28ee:	3a 20 44 
    28f1:	48 89 03             	mov    %rax,(%rbx)
    28f4:	48 b8 4e 53 20 69 73 	movabs $0x6e7520736920534e,%rax
    28fb:	20 75 6e 
    28fe:	48 89 43 08          	mov    %rax,0x8(%rbx)
    2902:	48 b8 61 62 6c 65 20 	movabs $0x206f7420656c6261,%rax
    2909:	74 6f 20 
    290c:	48 89 43 10          	mov    %rax,0x10(%rbx)
    2910:	48 b8 72 65 73 6f 6c 	movabs $0x2065766c6f736572,%rax
    2917:	76 65 20 
    291a:	48 89 43 18          	mov    %rax,0x18(%rbx)
    291e:	48 b8 73 65 72 76 65 	movabs $0x6120726576726573,%rax
    2925:	72 20 61 
    2928:	48 89 43 20          	mov    %rax,0x20(%rbx)
    292c:	c7 43 28 64 64 72 65 	movl   $0x65726464,0x28(%rbx)
    2933:	66 c7 43 2c 73 73    	movw   $0x7373,0x2c(%rbx)
    2939:	c6 43 2e 00          	movb   $0x0,0x2e(%rbx)
    293d:	89 ef                	mov    %ebp,%edi
    293f:	e8 44 e6 ff ff       	callq  f88 <_init+0x88>
    2944:	b8 ff ff ff ff       	mov    $0xffffffff,%eax
    2949:	e9 b1 02 00 00       	jmpq   2bff <submitr+0x595>
    294e:	48 b8 45 72 72 6f 72 	movabs $0x55203a726f727245,%rax
    2955:	3a 20 55 
    2958:	48 89 03             	mov    %rax,(%rbx)
    295b:	48 b8 6e 61 62 6c 65 	movabs $0x6f7420656c62616e,%rax
    2962:	20 74 6f 
    2965:	48 89 43 08          	mov    %rax,0x8(%rbx)
    2969:	48 b8 20 63 6f 6e 6e 	movabs $0x7463656e6e6f6320,%rax
    2970:	65 63 74 
    2973:	48 89 43 10          	mov    %rax,0x10(%rbx)
    2977:	48 b8 20 74 6f 20 74 	movabs $0x20656874206f7420,%rax
    297e:	68 65 20 
    2981:	48 89 43 18          	mov    %rax,0x18(%rbx)
    2985:	c7 43 20 73 65 72 76 	movl   $0x76726573,0x20(%rbx)
    298c:	66 c7 43 24 65 72    	movw   $0x7265,0x24(%rbx)
    2992:	c6 43 26 00          	movb   $0x0,0x26(%rbx)
    2996:	89 ef                	mov    %ebp,%edi
    2998:	e8 eb e5 ff ff       	callq  f88 <_init+0x88>
    299d:	b8 ff ff ff ff       	mov    $0xffffffff,%eax
    29a2:	e9 58 02 00 00       	jmpq   2bff <submitr+0x595>
    29a7:	48 b8 45 72 72 6f 72 	movabs $0x52203a726f727245,%rax
    29ae:	3a 20 52 
    29b1:	48 89 03             	mov    %rax,(%rbx)
    29b4:	48 b8 65 73 75 6c 74 	movabs $0x747320746c757365,%rax
    29bb:	20 73 74 
    29be:	48 89 43 08          	mov    %rax,0x8(%rbx)
    29c2:	48 b8 72 69 6e 67 20 	movabs $0x6f6f7420676e6972,%rax
    29c9:	74 6f 6f 
    29cc:	48 89 43 10          	mov    %rax,0x10(%rbx)
    29d0:	48 b8 20 6c 61 72 67 	movabs $0x202e656772616c20,%rax
    29d7:	65 2e 20 
    29da:	48 89 43 18          	mov    %rax,0x18(%rbx)
    29de:	48 b8 49 6e 63 72 65 	movabs $0x6573616572636e49,%rax
    29e5:	61 73 65 
    29e8:	48 89 43 20          	mov    %rax,0x20(%rbx)
    29ec:	48 b8 20 53 55 42 4d 	movabs $0x5254494d42555320,%rax
    29f3:	49 54 52 
    29f6:	48 89 43 28          	mov    %rax,0x28(%rbx)
    29fa:	48 b8 5f 4d 41 58 42 	movabs $0x46554258414d5f,%rax
    2a01:	55 46 00 
    2a04:	48 89 43 30          	mov    %rax,0x30(%rbx)
    2a08:	89 ef                	mov    %ebp,%edi
    2a0a:	e8 79 e5 ff ff       	callq  f88 <_init+0x88>
    2a0f:	b8 ff ff ff ff       	mov    $0xffffffff,%eax
    2a14:	e9 e6 01 00 00       	jmpq   2bff <submitr+0x595>
    2a19:	48 b8 45 72 72 6f 72 	movabs $0x52203a726f727245,%rax
    2a20:	3a 20 52 
    2a23:	48 89 03             	mov    %rax,(%rbx)
    2a26:	48 b8 65 73 75 6c 74 	movabs $0x747320746c757365,%rax
    2a2d:	20 73 74 
    2a30:	48 89 43 08          	mov    %rax,0x8(%rbx)
    2a34:	48 b8 72 69 6e 67 20 	movabs $0x6e6f6320676e6972,%rax
    2a3b:	63 6f 6e 
    2a3e:	48 89 43 10          	mov    %rax,0x10(%rbx)
    2a42:	48 b8 74 61 69 6e 73 	movabs $0x6e6120736e696174,%rax
    2a49:	20 61 6e 
    2a4c:	48 89 43 18          	mov    %rax,0x18(%rbx)
    2a50:	48 b8 20 69 6c 6c 65 	movabs $0x6c6167656c6c6920,%rax
    2a57:	67 61 6c 
    2a5a:	48 89 43 20          	mov    %rax,0x20(%rbx)
    2a5e:	48 b8 20 6f 72 20 75 	movabs $0x72706e7520726f20,%rax
    2a65:	6e 70 72 
    2a68:	48 89 43 28          	mov    %rax,0x28(%rbx)
    2a6c:	48 b8 69 6e 74 61 62 	movabs $0x20656c6261746e69,%rax
    2a73:	6c 65 20 
    2a76:	48 89 43 30          	mov    %rax,0x30(%rbx)
    2a7a:	48 b8 63 68 61 72 61 	movabs $0x6574636172616863,%rax
    2a81:	63 74 65 
    2a84:	48 89 43 38          	mov    %rax,0x38(%rbx)
    2a88:	66 c7 43 40 72 2e    	movw   $0x2e72,0x40(%rbx)
    2a8e:	c6 43 42 00          	movb   $0x0,0x42(%rbx)
    2a92:	89 ef                	mov    %ebp,%edi
    2a94:	e8 ef e4 ff ff       	callq  f88 <_init+0x88>
    2a99:	b8 ff ff ff ff       	mov    $0xffffffff,%eax
    2a9e:	e9 5c 01 00 00       	jmpq   2bff <submitr+0x595>
    2aa3:	48 b8 45 72 72 6f 72 	movabs $0x43203a726f727245,%rax
    2aaa:	3a 20 43 
    2aad:	48 89 03             	mov    %rax,(%rbx)
    2ab0:	48 b8 6c 69 65 6e 74 	movabs $0x6e7520746e65696c,%rax
    2ab7:	20 75 6e 
    2aba:	48 89 43 08          	mov    %rax,0x8(%rbx)
    2abe:	48 b8 61 62 6c 65 20 	movabs $0x206f7420656c6261,%rax
    2ac5:	74 6f 20 
    2ac8:	48 89 43 10          	mov    %rax,0x10(%rbx)
    2acc:	48 b8 77 72 69 74 65 	movabs $0x6f74206574697277,%rax
    2ad3:	20 74 6f 
    2ad6:	48 89 43 18          	mov    %rax,0x18(%rbx)
    2ada:	48 b8 20 74 68 65 20 	movabs $0x7365722065687420,%rax
    2ae1:	72 65 73 
    2ae4:	48 89 43 20          	mov    %rax,0x20(%rbx)
    2ae8:	48 b8 75 6c 74 20 73 	movabs $0x7672657320746c75,%rax
    2aef:	65 72 76 
    2af2:	48 89 43 28          	mov    %rax,0x28(%rbx)
    2af6:	66 c7 43 30 65 72    	movw   $0x7265,0x30(%rbx)
    2afc:	c6 43 32 00          	movb   $0x0,0x32(%rbx)
    2b00:	89 ef                	mov    %ebp,%edi
    2b02:	e8 81 e4 ff ff       	callq  f88 <_init+0x88>
    2b07:	b8 ff ff ff ff       	mov    $0xffffffff,%eax
    2b0c:	e9 ee 00 00 00       	jmpq   2bff <submitr+0x595>
    2b11:	48 b8 45 72 72 6f 72 	movabs $0x43203a726f727245,%rax
    2b18:	3a 20 43 
    2b1b:	48 89 03             	mov    %rax,(%rbx)
    2b1e:	48 b8 6c 69 65 6e 74 	movabs $0x6e7520746e65696c,%rax
    2b25:	20 75 6e 
    2b28:	48 89 43 08          	mov    %rax,0x8(%rbx)
    2b2c:	48 b8 61 62 6c 65 20 	movabs $0x206f7420656c6261,%rax
    2b33:	74 6f 20 
    2b36:	48 89 43 10          	mov    %rax,0x10(%rbx)
    2b3a:	48 b8 72 65 61 64 20 	movabs $0x7269662064616572,%rax
    2b41:	66 69 72 
    2b44:	48 89 43 18          	mov    %rax,0x18(%rbx)
    2b48:	48 b8 73 74 20 68 65 	movabs $0x6564616568207473,%rax
    2b4f:	61 64 65 
    2b52:	48 89 43 20          	mov    %rax,0x20(%rbx)
    2b56:	48 b8 72 20 66 72 6f 	movabs $0x72206d6f72662072,%rax
    2b5d:	6d 20 72 
    2b60:	48 89 43 28          	mov    %rax,0x28(%rbx)
    2b64:	48 b8 65 73 75 6c 74 	movabs $0x657320746c757365,%rax
    2b6b:	20 73 65 
    2b6e:	48 89 43 30          	mov    %rax,0x30(%rbx)
    2b72:	c7 43 38 72 76 65 72 	movl   $0x72657672,0x38(%rbx)
    2b79:	c6 43 3c 00          	movb   $0x0,0x3c(%rbx)
    2b7d:	89 ef                	mov    %ebp,%edi
    2b7f:	e8 04 e4 ff ff       	callq  f88 <_init+0x88>
    2b84:	b8 ff ff ff ff       	mov    $0xffffffff,%eax
    2b89:	eb 74                	jmp    2bff <submitr+0x595>
    2b8b:	48 b8 45 72 72 6f 72 	movabs $0x43203a726f727245,%rax
    2b92:	3a 20 43 
    2b95:	48 89 03             	mov    %rax,(%rbx)
    2b98:	48 b8 6c 69 65 6e 74 	movabs $0x6e7520746e65696c,%rax
    2b9f:	20 75 6e 
    2ba2:	48 89 43 08          	mov    %rax,0x8(%rbx)
    2ba6:	48 b8 61 62 6c 65 20 	movabs $0x206f7420656c6261,%rax
    2bad:	74 6f 20 
    2bb0:	48 89 43 10          	mov    %rax,0x10(%rbx)
    2bb4:	48 b8 72 65 61 64 20 	movabs $0x6165682064616572,%rax
    2bbb:	68 65 61 
    2bbe:	48 89 43 18          	mov    %rax,0x18(%rbx)
    2bc2:	48 b8 64 65 72 73 20 	movabs $0x6f72662073726564,%rax
    2bc9:	66 72 6f 
    2bcc:	48 89 43 20          	mov    %rax,0x20(%rbx)
    2bd0:	48 b8 6d 20 74 68 65 	movabs $0x657220656874206d,%rax
    2bd7:	20 72 65 
    2bda:	48 89 43 28          	mov    %rax,0x28(%rbx)
    2bde:	48 b8 73 75 6c 74 20 	movabs $0x72657320746c7573,%rax
    2be5:	73 65 72 
    2be8:	48 89 43 30          	mov    %rax,0x30(%rbx)
    2bec:	c7 43 38 76 65 72 00 	movl   $0x726576,0x38(%rbx)
    2bf3:	89 ef                	mov    %ebp,%edi
    2bf5:	e8 8e e3 ff ff       	callq  f88 <_init+0x88>
    2bfa:	b8 ff ff ff ff       	mov    $0xffffffff,%eax
    2bff:	48 8b 9c 24 58 a0 00 	mov    0xa058(%rsp),%rbx
    2c06:	00 
    2c07:	64 48 33 1c 25 28 00 	xor    %fs:0x28,%rbx
    2c0e:	00 00 
    2c10:	0f 85 fb 01 00 00    	jne    2e11 <submitr+0x7a7>
    2c16:	48 81 c4 68 a0 00 00 	add    $0xa068,%rsp
    2c1d:	5b                   	pop    %rbx
    2c1e:	5d                   	pop    %rbp
    2c1f:	41 5c                	pop    %r12
    2c21:	41 5d                	pop    %r13
    2c23:	41 5e                	pop    %r14
    2c25:	41 5f                	pop    %r15
    2c27:	c3                   	retq   
    2c28:	85 c0                	test   %eax,%eax
    2c2a:	74 4e                	je     2c7a <submitr+0x610>
    2c2c:	48 8d b4 24 50 20 00 	lea    0x2050(%rsp),%rsi
    2c33:	00 
    2c34:	48 8d 7c 24 40       	lea    0x40(%rsp),%rdi
    2c39:	ba 00 20 00 00       	mov    $0x2000,%edx
    2c3e:	e8 73 f8 ff ff       	callq  24b6 <rio_readlineb>
    2c43:	48 85 c0             	test   %rax,%rax
    2c46:	0f 8e 3f ff ff ff    	jle    2b8b <submitr+0x521>
    2c4c:	0f b6 94 24 50 20 00 	movzbl 0x2050(%rsp),%edx
    2c53:	00 
    2c54:	b8 0d 00 00 00       	mov    $0xd,%eax
    2c59:	29 d0                	sub    %edx,%eax
    2c5b:	75 cb                	jne    2c28 <submitr+0x5be>
    2c5d:	0f b6 94 24 51 20 00 	movzbl 0x2051(%rsp),%edx
    2c64:	00 
    2c65:	b8 0a 00 00 00       	mov    $0xa,%eax
    2c6a:	29 d0                	sub    %edx,%eax
    2c6c:	75 ba                	jne    2c28 <submitr+0x5be>
    2c6e:	0f b6 84 24 52 20 00 	movzbl 0x2052(%rsp),%eax
    2c75:	00 
    2c76:	f7 d8                	neg    %eax
    2c78:	eb ae                	jmp    2c28 <submitr+0x5be>
    2c7a:	48 8d b4 24 50 20 00 	lea    0x2050(%rsp),%rsi
    2c81:	00 
    2c82:	48 8d 7c 24 40       	lea    0x40(%rsp),%rdi
    2c87:	ba 00 20 00 00       	mov    $0x2000,%edx
    2c8c:	e8 25 f8 ff ff       	callq  24b6 <rio_readlineb>
    2c91:	48 85 c0             	test   %rax,%rax
    2c94:	7e 66                	jle    2cfc <submitr+0x692>
    2c96:	44 8b 44 24 2c       	mov    0x2c(%rsp),%r8d
    2c9b:	41 81 f8 c8 00 00 00 	cmp    $0xc8,%r8d
    2ca2:	0f 85 d7 00 00 00    	jne    2d7f <submitr+0x715>
    2ca8:	48 8d b4 24 50 20 00 	lea    0x2050(%rsp),%rsi
    2caf:	00 
    2cb0:	48 89 df             	mov    %rbx,%rdi
    2cb3:	e8 98 e2 ff ff       	callq  f50 <_init+0x50>
    2cb8:	89 ef                	mov    %ebp,%edi
    2cba:	e8 c9 e2 ff ff       	callq  f88 <_init+0x88>
    2cbf:	0f b6 03             	movzbl (%rbx),%eax
    2cc2:	ba 4f 00 00 00       	mov    $0x4f,%edx
    2cc7:	29 c2                	sub    %eax,%edx
    2cc9:	0f 85 e9 00 00 00    	jne    2db8 <submitr+0x74e>
    2ccf:	0f b6 4b 01          	movzbl 0x1(%rbx),%ecx
    2cd3:	b8 4b 00 00 00       	mov    $0x4b,%eax
    2cd8:	29 c8                	sub    %ecx,%eax
    2cda:	0f 85 da 00 00 00    	jne    2dba <submitr+0x750>
    2ce0:	0f b6 4b 02          	movzbl 0x2(%rbx),%ecx
    2ce4:	b8 0a 00 00 00       	mov    $0xa,%eax
    2ce9:	29 c8                	sub    %ecx,%eax
    2ceb:	0f 85 c9 00 00 00    	jne    2dba <submitr+0x750>
    2cf1:	0f b6 43 03          	movzbl 0x3(%rbx),%eax
    2cf5:	f7 d8                	neg    %eax
    2cf7:	e9 be 00 00 00       	jmpq   2dba <submitr+0x750>
    2cfc:	48 b8 45 72 72 6f 72 	movabs $0x43203a726f727245,%rax
    2d03:	3a 20 43 
    2d06:	48 89 03             	mov    %rax,(%rbx)
    2d09:	48 b8 6c 69 65 6e 74 	movabs $0x6e7520746e65696c,%rax
    2d10:	20 75 6e 
    2d13:	48 89 43 08          	mov    %rax,0x8(%rbx)
    2d17:	48 b8 61 62 6c 65 20 	movabs $0x206f7420656c6261,%rax
    2d1e:	74 6f 20 
    2d21:	48 89 43 10          	mov    %rax,0x10(%rbx)
    2d25:	48 b8 72 65 61 64 20 	movabs $0x6174732064616572,%rax
    2d2c:	73 74 61 
    2d2f:	48 89 43 18          	mov    %rax,0x18(%rbx)
    2d33:	48 b8 74 75 73 20 6d 	movabs $0x7373656d20737574,%rax
    2d3a:	65 73 73 
    2d3d:	48 89 43 20          	mov    %rax,0x20(%rbx)
    2d41:	48 b8 61 67 65 20 66 	movabs $0x6d6f726620656761,%rax
    2d48:	72 6f 6d 
    2d4b:	48 89 43 28          	mov    %rax,0x28(%rbx)
    2d4f:	48 b8 20 72 65 73 75 	movabs $0x20746c7573657220,%rax
    2d56:	6c 74 20 
    2d59:	48 89 43 30          	mov    %rax,0x30(%rbx)
    2d5d:	c7 43 38 73 65 72 76 	movl   $0x76726573,0x38(%rbx)
    2d64:	66 c7 43 3c 65 72    	movw   $0x7265,0x3c(%rbx)
    2d6a:	c6 43 3e 00          	movb   $0x0,0x3e(%rbx)
    2d6e:	89 ef                	mov    %ebp,%edi
    2d70:	e8 13 e2 ff ff       	callq  f88 <_init+0x88>
    2d75:	b8 ff ff ff ff       	mov    $0xffffffff,%eax
    2d7a:	e9 80 fe ff ff       	jmpq   2bff <submitr+0x595>
    2d7f:	4c 8d 8c 24 50 80 00 	lea    0x8050(%rsp),%r9
    2d86:	00 
    2d87:	48 8d 0d fa 0b 00 00 	lea    0xbfa(%rip),%rcx        # 3988 <trans_char+0x78>
    2d8e:	48 c7 c2 ff ff ff ff 	mov    $0xffffffffffffffff,%rdx
    2d95:	be 01 00 00 00       	mov    $0x1,%esi
    2d9a:	48 89 df             	mov    %rbx,%rdi
    2d9d:	b8 00 00 00 00       	mov    $0x0,%eax
    2da2:	e8 89 e2 ff ff       	callq  1030 <_init+0x130>
    2da7:	89 ef                	mov    %ebp,%edi
    2da9:	e8 da e1 ff ff       	callq  f88 <_init+0x88>
    2dae:	b8 ff ff ff ff       	mov    $0xffffffff,%eax
    2db3:	e9 47 fe ff ff       	jmpq   2bff <submitr+0x595>
    2db8:	89 d0                	mov    %edx,%eax
    2dba:	f7 d8                	neg    %eax
    2dbc:	0f 84 3d fe ff ff    	je     2bff <submitr+0x595>
    2dc2:	b9 05 00 00 00       	mov    $0x5,%ecx
    2dc7:	48 8d 3d 02 0c 00 00 	lea    0xc02(%rip),%rdi        # 39d0 <trans_char+0xc0>
    2dce:	48 89 de             	mov    %rbx,%rsi
    2dd1:	f3 a6                	repz cmpsb %es:(%rdi),%ds:(%rsi)
    2dd3:	0f 97 c0             	seta   %al
    2dd6:	0f 92 c1             	setb   %cl
    2dd9:	29 c8                	sub    %ecx,%eax
    2ddb:	0f be c0             	movsbl %al,%eax
    2dde:	85 c0                	test   %eax,%eax
    2de0:	0f 84 19 fe ff ff    	je     2bff <submitr+0x595>
    2de6:	85 d2                	test   %edx,%edx
    2de8:	75 13                	jne    2dfd <submitr+0x793>
    2dea:	0f b6 43 01          	movzbl 0x1(%rbx),%eax
    2dee:	ba 4b 00 00 00       	mov    $0x4b,%edx
    2df3:	29 c2                	sub    %eax,%edx
    2df5:	75 06                	jne    2dfd <submitr+0x793>
    2df7:	0f b6 53 02          	movzbl 0x2(%rbx),%edx
    2dfb:	f7 da                	neg    %edx
    2dfd:	89 d0                	mov    %edx,%eax
    2dff:	f7 d8                	neg    %eax
    2e01:	0f 84 f8 fd ff ff    	je     2bff <submitr+0x595>
    2e07:	b8 ff ff ff ff       	mov    $0xffffffff,%eax
    2e0c:	e9 ee fd ff ff       	jmpq   2bff <submitr+0x595>
    2e11:	e8 52 e1 ff ff       	callq  f68 <_init+0x68>

0000000000002e16 <init_timeout>:
    2e16:	85 ff                	test   %edi,%edi
    2e18:	74 20                	je     2e3a <init_timeout+0x24>
    2e1a:	53                   	push   %rbx
    2e1b:	89 fb                	mov    %edi,%ebx
    2e1d:	85 ff                	test   %edi,%edi
    2e1f:	78 1b                	js     2e3c <init_timeout+0x26>
    2e21:	48 8d 35 75 f5 ff ff 	lea    -0xa8b(%rip),%rsi        # 239d <sigalrm_handler>
    2e28:	bf 0e 00 00 00       	mov    $0xe,%edi
    2e2d:	e8 66 e1 ff ff       	callq  f98 <_init+0x98>
    2e32:	89 df                	mov    %ebx,%edi
    2e34:	e8 47 e1 ff ff       	callq  f80 <_init+0x80>
    2e39:	5b                   	pop    %rbx
    2e3a:	f3 c3                	repz retq 
    2e3c:	bb 00 00 00 00       	mov    $0x0,%ebx
    2e41:	eb de                	jmp    2e21 <init_timeout+0xb>

0000000000002e43 <init_driver>:
    2e43:	41 54                	push   %r12
    2e45:	55                   	push   %rbp
    2e46:	53                   	push   %rbx
    2e47:	48 83 ec 20          	sub    $0x20,%rsp
    2e4b:	48 89 fd             	mov    %rdi,%rbp
    2e4e:	64 48 8b 04 25 28 00 	mov    %fs:0x28,%rax
    2e55:	00 00 
    2e57:	48 89 44 24 18       	mov    %rax,0x18(%rsp)
    2e5c:	31 c0                	xor    %eax,%eax
    2e5e:	be 01 00 00 00       	mov    $0x1,%esi
    2e63:	bf 0d 00 00 00       	mov    $0xd,%edi
    2e68:	e8 2b e1 ff ff       	callq  f98 <_init+0x98>
    2e6d:	be 01 00 00 00       	mov    $0x1,%esi
    2e72:	bf 1d 00 00 00       	mov    $0x1d,%edi
    2e77:	e8 1c e1 ff ff       	callq  f98 <_init+0x98>
    2e7c:	be 01 00 00 00       	mov    $0x1,%esi
    2e81:	bf 1d 00 00 00       	mov    $0x1d,%edi
    2e86:	e8 0d e1 ff ff       	callq  f98 <_init+0x98>
    2e8b:	ba 00 00 00 00       	mov    $0x0,%edx
    2e90:	be 01 00 00 00       	mov    $0x1,%esi
    2e95:	bf 02 00 00 00       	mov    $0x2,%edi
    2e9a:	e8 99 e1 ff ff       	callq  1038 <_init+0x138>
    2e9f:	85 c0                	test   %eax,%eax
    2ea1:	0f 88 99 00 00 00    	js     2f40 <init_driver+0xfd>
    2ea7:	89 c3                	mov    %eax,%ebx
    2ea9:	48 8d 3d 5a 06 00 00 	lea    0x65a(%rip),%rdi        # 350a <_IO_stdin_used+0x37a>
    2eb0:	e8 eb e0 ff ff       	callq  fa0 <_init+0xa0>
    2eb5:	48 85 c0             	test   %rax,%rax
    2eb8:	0f 84 ce 00 00 00    	je     2f8c <init_driver+0x149>
    2ebe:	48 c7 04 24 00 00 00 	movq   $0x0,(%rsp)
    2ec5:	00 
    2ec6:	48 c7 44 24 08 00 00 	movq   $0x0,0x8(%rsp)
    2ecd:	00 00 
    2ecf:	66 c7 04 24 02 00    	movw   $0x2,(%rsp)
    2ed5:	48 63 50 14          	movslq 0x14(%rax),%rdx
    2ed9:	48 8b 40 18          	mov    0x18(%rax),%rax
    2edd:	48 8b 30             	mov    (%rax),%rsi
    2ee0:	48 8d 7c 24 04       	lea    0x4(%rsp),%rdi
    2ee5:	b9 0c 00 00 00       	mov    $0xc,%ecx
    2eea:	e8 b9 e0 ff ff       	callq  fa8 <_init+0xa8>
    2eef:	66 c7 44 24 02 3c 9a 	movw   $0x9a3c,0x2(%rsp)
    2ef6:	ba 10 00 00 00       	mov    $0x10,%edx
    2efb:	48 89 e6             	mov    %rsp,%rsi
    2efe:	89 df                	mov    %ebx,%edi
    2f00:	e8 13 e1 ff ff       	callq  1018 <_init+0x118>
    2f05:	85 c0                	test   %eax,%eax
    2f07:	0f 88 e7 00 00 00    	js     2ff4 <init_driver+0x1b1>
    2f0d:	89 df                	mov    %ebx,%edi
    2f0f:	e8 74 e0 ff ff       	callq  f88 <_init+0x88>
    2f14:	66 c7 45 00 4f 4b    	movw   $0x4b4f,0x0(%rbp)
    2f1a:	c6 45 02 00          	movb   $0x0,0x2(%rbp)
    2f1e:	b8 00 00 00 00       	mov    $0x0,%eax
    2f23:	48 8b 4c 24 18       	mov    0x18(%rsp),%rcx
    2f28:	64 48 33 0c 25 28 00 	xor    %fs:0x28,%rcx
    2f2f:	00 00 
    2f31:	0f 85 10 01 00 00    	jne    3047 <init_driver+0x204>
    2f37:	48 83 c4 20          	add    $0x20,%rsp
    2f3b:	5b                   	pop    %rbx
    2f3c:	5d                   	pop    %rbp
    2f3d:	41 5c                	pop    %r12
    2f3f:	c3                   	retq   
    2f40:	48 b8 45 72 72 6f 72 	movabs $0x43203a726f727245,%rax
    2f47:	3a 20 43 
    2f4a:	48 89 45 00          	mov    %rax,0x0(%rbp)
    2f4e:	48 b8 6c 69 65 6e 74 	movabs $0x6e7520746e65696c,%rax
    2f55:	20 75 6e 
    2f58:	48 89 45 08          	mov    %rax,0x8(%rbp)
    2f5c:	48 b8 61 62 6c 65 20 	movabs $0x206f7420656c6261,%rax
    2f63:	74 6f 20 
    2f66:	48 89 45 10          	mov    %rax,0x10(%rbp)
    2f6a:	48 b8 63 72 65 61 74 	movabs $0x7320657461657263,%rax
    2f71:	65 20 73 
    2f74:	48 89 45 18          	mov    %rax,0x18(%rbp)
    2f78:	c7 45 20 6f 63 6b 65 	movl   $0x656b636f,0x20(%rbp)
    2f7f:	66 c7 45 24 74 00    	movw   $0x74,0x24(%rbp)
    2f85:	b8 ff ff ff ff       	mov    $0xffffffff,%eax
    2f8a:	eb 97                	jmp    2f23 <init_driver+0xe0>
    2f8c:	48 b8 45 72 72 6f 72 	movabs $0x44203a726f727245,%rax
    2f93:	3a 20 44 
    2f96:	48 89 45 00          	mov    %rax,0x0(%rbp)
    2f9a:	48 b8 4e 53 20 69 73 	movabs $0x6e7520736920534e,%rax
    2fa1:	20 75 6e 
    2fa4:	48 89 45 08          	mov    %rax,0x8(%rbp)
    2fa8:	48 b8 61 62 6c 65 20 	movabs $0x206f7420656c6261,%rax
    2faf:	74 6f 20 
    2fb2:	48 89 45 10          	mov    %rax,0x10(%rbp)
    2fb6:	48 b8 72 65 73 6f 6c 	movabs $0x2065766c6f736572,%rax
    2fbd:	76 65 20 
    2fc0:	48 89 45 18          	mov    %rax,0x18(%rbp)
    2fc4:	48 b8 73 65 72 76 65 	movabs $0x6120726576726573,%rax
    2fcb:	72 20 61 
    2fce:	48 89 45 20          	mov    %rax,0x20(%rbp)
    2fd2:	c7 45 28 64 64 72 65 	movl   $0x65726464,0x28(%rbp)
    2fd9:	66 c7 45 2c 73 73    	movw   $0x7373,0x2c(%rbp)
    2fdf:	c6 45 2e 00          	movb   $0x0,0x2e(%rbp)
    2fe3:	89 df                	mov    %ebx,%edi
    2fe5:	e8 9e df ff ff       	callq  f88 <_init+0x88>
    2fea:	b8 ff ff ff ff       	mov    $0xffffffff,%eax
    2fef:	e9 2f ff ff ff       	jmpq   2f23 <init_driver+0xe0>
    2ff4:	48 b8 45 72 72 6f 72 	movabs $0x55203a726f727245,%rax
    2ffb:	3a 20 55 
    2ffe:	48 89 45 00          	mov    %rax,0x0(%rbp)
    3002:	48 b8 6e 61 62 6c 65 	movabs $0x6f7420656c62616e,%rax
    3009:	20 74 6f 
    300c:	48 89 45 08          	mov    %rax,0x8(%rbp)
    3010:	48 b8 20 63 6f 6e 6e 	movabs $0x7463656e6e6f6320,%rax
    3017:	65 63 74 
    301a:	48 89 45 10          	mov    %rax,0x10(%rbp)
    301e:	48 b8 20 74 6f 20 73 	movabs $0x76726573206f7420,%rax
    3025:	65 72 76 
    3028:	48 89 45 18          	mov    %rax,0x18(%rbp)
    302c:	66 c7 45 20 65 72    	movw   $0x7265,0x20(%rbp)
    3032:	c6 45 22 00          	movb   $0x0,0x22(%rbp)
    3036:	89 df                	mov    %ebx,%edi
    3038:	e8 4b df ff ff       	callq  f88 <_init+0x88>
    303d:	b8 ff ff ff ff       	mov    $0xffffffff,%eax
    3042:	e9 dc fe ff ff       	jmpq   2f23 <init_driver+0xe0>
    3047:	e8 1c df ff ff       	callq  f68 <_init+0x68>

000000000000304c <driver_post>:
    304c:	53                   	push   %rbx
    304d:	4c 89 cb             	mov    %r9,%rbx
    3050:	45 85 c0             	test   %r8d,%r8d
    3053:	75 18                	jne    306d <driver_post+0x21>
    3055:	48 85 ff             	test   %rdi,%rdi
    3058:	74 05                	je     305f <driver_post+0x13>
    305a:	80 3f 00             	cmpb   $0x0,(%rdi)
    305d:	75 37                	jne    3096 <driver_post+0x4a>
    305f:	66 c7 03 4f 4b       	movw   $0x4b4f,(%rbx)
    3064:	c6 43 02 00          	movb   $0x0,0x2(%rbx)
    3068:	44 89 c0             	mov    %r8d,%eax
    306b:	5b                   	pop    %rbx
    306c:	c3                   	retq   
    306d:	48 89 ca             	mov    %rcx,%rdx
    3070:	48 8d 35 5e 09 00 00 	lea    0x95e(%rip),%rsi        # 39d5 <trans_char+0xc5>
    3077:	bf 01 00 00 00       	mov    $0x1,%edi
    307c:	b8 00 00 00 00       	mov    $0x0,%eax
    3081:	e8 62 df ff ff       	callq  fe8 <_init+0xe8>
    3086:	66 c7 03 4f 4b       	movw   $0x4b4f,(%rbx)
    308b:	c6 43 02 00          	movb   $0x0,0x2(%rbx)
    308f:	b8 00 00 00 00       	mov    $0x0,%eax
    3094:	eb d5                	jmp    306b <driver_post+0x1f>
    3096:	48 83 ec 08          	sub    $0x8,%rsp
    309a:	41 51                	push   %r9
    309c:	49 89 c9             	mov    %rcx,%r9
    309f:	49 89 d0             	mov    %rdx,%r8
    30a2:	48 89 f9             	mov    %rdi,%rcx
    30a5:	48 89 f2             	mov    %rsi,%rdx
    30a8:	be 9a 3c 00 00       	mov    $0x3c9a,%esi
    30ad:	48 8d 3d 56 04 00 00 	lea    0x456(%rip),%rdi        # 350a <_IO_stdin_used+0x37a>
    30b4:	e8 b1 f5 ff ff       	callq  266a <submitr>
    30b9:	48 83 c4 10          	add    $0x10,%rsp
    30bd:	eb ac                	jmp    306b <driver_post+0x1f>

00000000000030bf <check>:
    30bf:	89 f8                	mov    %edi,%eax
    30c1:	c1 e8 1c             	shr    $0x1c,%eax
    30c4:	85 c0                	test   %eax,%eax
    30c6:	74 1d                	je     30e5 <check+0x26>
    30c8:	b9 00 00 00 00       	mov    $0x0,%ecx
    30cd:	83 f9 1f             	cmp    $0x1f,%ecx
    30d0:	7f 0d                	jg     30df <check+0x20>
    30d2:	89 f8                	mov    %edi,%eax
    30d4:	d3 e8                	shr    %cl,%eax
    30d6:	3c 0a                	cmp    $0xa,%al
    30d8:	74 11                	je     30eb <check+0x2c>
    30da:	83 c1 08             	add    $0x8,%ecx
    30dd:	eb ee                	jmp    30cd <check+0xe>
    30df:	b8 01 00 00 00       	mov    $0x1,%eax
    30e4:	c3                   	retq   
    30e5:	b8 00 00 00 00       	mov    $0x0,%eax
    30ea:	c3                   	retq   
    30eb:	b8 00 00 00 00       	mov    $0x0,%eax
    30f0:	c3                   	retq   

00000000000030f1 <gencookie>:
    30f1:	53                   	push   %rbx
    30f2:	83 c7 01             	add    $0x1,%edi
    30f5:	e8 46 de ff ff       	callq  f40 <_init+0x40>
    30fa:	e8 c9 de ff ff       	callq  fc8 <_init+0xc8>
    30ff:	89 c3                	mov    %eax,%ebx
    3101:	89 c7                	mov    %eax,%edi
    3103:	e8 b7 ff ff ff       	callq  30bf <check>
    3108:	85 c0                	test   %eax,%eax
    310a:	74 ee                	je     30fa <gencookie+0x9>
    310c:	89 d8                	mov    %ebx,%eax
    310e:	5b                   	pop    %rbx
    310f:	c3                   	retq   

0000000000003110 <__libc_csu_init>:
    3110:	41 57                	push   %r15
    3112:	41 56                	push   %r14
    3114:	41 89 ff             	mov    %edi,%r15d
    3117:	41 55                	push   %r13
    3119:	41 54                	push   %r12
    311b:	4c 8d 25 b6 1b 20 00 	lea    0x201bb6(%rip),%r12        # 204cd8 <__frame_dummy_init_array_entry>
    3122:	55                   	push   %rbp
    3123:	48 8d 2d b6 1b 20 00 	lea    0x201bb6(%rip),%rbp        # 204ce0 <__init_array_end>
    312a:	53                   	push   %rbx
    312b:	49 89 f6             	mov    %rsi,%r14
    312e:	49 89 d5             	mov    %rdx,%r13
    3131:	4c 29 e5             	sub    %r12,%rbp
    3134:	48 83 ec 08          	sub    $0x8,%rsp
    3138:	48 c1 fd 03          	sar    $0x3,%rbp
    313c:	e8 bf dd ff ff       	callq  f00 <_init>
    3141:	48 85 ed             	test   %rbp,%rbp
    3144:	74 20                	je     3166 <__libc_csu_init+0x56>
    3146:	31 db                	xor    %ebx,%ebx
    3148:	0f 1f 84 00 00 00 00 	nopl   0x0(%rax,%rax,1)
    314f:	00 
    3150:	4c 89 ea             	mov    %r13,%rdx
    3153:	4c 89 f6             	mov    %r14,%rsi
    3156:	44 89 ff             	mov    %r15d,%edi
    3159:	41 ff 14 dc          	callq  *(%r12,%rbx,8)
    315d:	48 83 c3 01          	add    $0x1,%rbx
    3161:	48 39 dd             	cmp    %rbx,%rbp
    3164:	75 ea                	jne    3150 <__libc_csu_init+0x40>
    3166:	48 83 c4 08          	add    $0x8,%rsp
    316a:	5b                   	pop    %rbx
    316b:	5d                   	pop    %rbp
    316c:	41 5c                	pop    %r12
    316e:	41 5d                	pop    %r13
    3170:	41 5e                	pop    %r14
    3172:	41 5f                	pop    %r15
    3174:	c3                   	retq   
    3175:	90                   	nop
    3176:	66 2e 0f 1f 84 00 00 	nopw   %cs:0x0(%rax,%rax,1)
    317d:	00 00 00 

0000000000003180 <__libc_csu_fini>:
    3180:	f3 c3                	repz retq 

Disassembly of section .fini:

0000000000003184 <_fini>:
    3184:	48 83 ec 08          	sub    $0x8,%rsp
    3188:	48 83 c4 08          	add    $0x8,%rsp
    318c:	c3                   	retq   
